;
; File generated by cc65 v 2.19 - Git 4f87c7c
;
	.fopt		compiler,"cc65 v 2.19 - Git 4f87c7c"
	.setcpu		"6502"
	.smart		on
	.autoimport	on
	.case		on
	.debuginfo	off
	.importzp	sp, sreg, regsave, regbank
	.importzp	tmp1, tmp2, tmp3, tmp4, ptr1, ptr2, ptr3, ptr4
	.macpack	longbranch
	.forceimport	__STARTUP__
	.export		_empty_line
	.export		_dialogs
	.export		_animate_skeleton
	.export		_set_animation_info
	.export		_get_x_speed
	.export		_get_y_speed
	.import		_set_vram_buffer
	.import		_one_vram_buffer
	.import		_multi_vram_buffer_horz
	.import		_get_pad_new
	.import		_set_scroll_x
	.import		_set_scroll_y
	.import		_pal_bg
	.import		_pal_spr
	.import		_pal_col
	.import		_pal_bright
	.import		_ppu_wait_nmi
	.import		_ppu_off
	.import		_ppu_on_all
	.import		_oam_clear
	.import		_oam_meta_spr
	.import		_pad_poll
	.import		_bank_spr
	.import		_vram_adr
	.import		_vram_unrle
	.import		_memcpy
	.import		_memfill
	.export		_bankLevel
	.export		_bankBuffer
	.export		_banked_call
	.export		_bank_push
	.export		_bank_pop
	.import		_set_prg_8000
	.import		_set_chr_mode_1
	.import		_set_chr_mode_4
	.import		_set_chr_mode_5
	.import		_disable_irq
	.export		_forest_col_01
	.export		_forest_col_02
	.export		_cemetery_col
	.export		_altar
	.export		_cemetery
	.export		_map
	.export		_title_screen
	.export		_black_level
	.export		_pal_forest_bg
	.export		_pal_cemetery_bg
	.export		_pal_cemetery_spr
	.export		_pal_altar_bg
	.export		_pal_altar_spr
	.export		_pal_altar_lightning
	.export		_angelic_idle1
	.export		_angelic_idle2
	.export		_angelic_idle3
	.export		_angelic_face
	.export		_angelic_animation_index
	.export		_angelic_animation
	.export		_crow_left_idle
	.export		_crow_right_idle
	.export		_crow_left_skwak
	.export		_crow_right_skwak
	.export		_crow_left_fly1
	.export		_crow_right_fly1
	.export		_crow_left_fly2
	.export		_crow_right_fly2
	.export		_crow_animation_index
	.export		_crow_animation
	.export		_HorizontalPaddleSpr
	.export		_VerticalPaddleSpr
	.export		_tree
	.export		_door0
	.export		_door1
	.export		_door2
	.export		_door3
	.export		_door4
	.export		_torch_flicker1
	.export		_torch_flicker2
	.export		_torch_flicker3
	.export		_torch_flicker4
	.export		_torch_animation_index
	.export		_torch_animation
	.export		_door_animation_index
	.export		_door_animation
	.export		_hero_head_up
	.export		_hero_head_down
	.export		_skull_face
	.export		_lightning_dead
	.export		_lightning_0_data
	.export		_lightning_1_data
	.export		_lightning_2_data
	.export		_lightning_3_data
	.export		_lightning_4_data
	.export		_lightning_5_data
	.export		_lightning_6_data
	.export		_lightning_7_data
	.export		_lightning_8_data
	.export		_lightning_9_data
	.export		_lightning_10_data
	.export		_lightning_11_data
	.export		_lightning_animation_index
	.export		_lightning_animation
	.export		_necromancer_idle
	.export		_necromancer_raising1
	.export		_necromancer_raising2
	.export		_necromancer_hit
	.export		_necromancer_animation_index
	.export		_necromancer_animation
	.export		_skeleton_right_still
	.export		_skeleton_right_walk1
	.export		_skeleton_right_walk2
	.export		_skeleton_right_walk3
	.export		_skeleton_right_walk4
	.export		_skeleton_right_turn
	.export		_skeleton_left_still
	.export		_skeleton_left_walk1
	.export		_skeleton_left_walk2
	.export		_skeleton_left_walk3
	.export		_skeleton_left_walk4
	.export		_skeleton_left_turn
	.export		_skeleton_dying_right1
	.export		_skeleton_dying_right2
	.export		_skeleton_dying_right3
	.export		_skeleton_dying_right4
	.export		_skeleton_dying_right5
	.export		_skeleton_dying_right6
	.export		_skeleton_dying_right7
	.export		_skeleton_dying_left1
	.export		_skeleton_dying_left2
	.export		_skeleton_dying_left3
	.export		_skeleton_dying_left4
	.export		_skeleton_dying_left5
	.export		_skeleton_dying_left6
	.export		_skeleton_dying_left7
	.export		_skeleton_animation_index
	.export		_skeleton_animation
	.export		_skull_rotate_left1
	.export		_skull_rotate_left2
	.export		_skull_rotate_left3
	.export		_skull_rotate_left4
	.export		_skull_rotate_left5
	.export		_skull_rotate_left6
	.export		_skull_rotate_right1
	.export		_skull_rotate_right2
	.export		_skull_rotate_right3
	.export		_skull_rotate_right4
	.export		_skull_rotate_right5
	.export		_skull_rotate_right6
	.export		_skull_animation_index
	.export		_skull_animation
	.export		_no_star
	.export		_star_0_data
	.export		_star_1_data
	.export		_star_2_data
	.export		_star_3_data
	.export		_star_4_data
	.export		_star_5_data
	.export		_star_6_data
	.export		_star_7_data
	.export		_star_8_data
	.export		_star_9_data
	.export		_stars_animation_index
	.export		_stars_animation
	.export		_wram_array
	.export		_levels
	.export		_actors
	.export		_init_skeletons
	.export		_init_levels
	.export		_init_level_specifics
	.export		_init_skull
	.export		_debug
	.export		_update_health
	.export		_update_xp
	.export		_add_xp
	.export		_show_HUD
	.export		_show_map
	.export		_hide_map
	.export		_show_game_over
	.export		_draw_level_specifics
	.export		_load_black_level
	.export		_load_level
	.export		_load_title_screen
	.export		_load_map
	.export		_remove_brick
	.export		_hit_brick
	.export		_add_x_speed
	.export		_subtract_x_speed
	.export		_add_y_speed
	.export		_subtract_y_speed
	.export		_get_collision_type
	.export		_set_collision_data
	.export		_do_skull_tile_collision
	.export		_skull_was_beside
	.export		_skull_was_above
	.export		_is_skull_collision_paddle
	.export		_is_paddle_collision_skull
	.export		_check_enemy_collision
	.export		_move_horizontal_paddle
	.export		_move_vertical_paddle
	.export		_check_paddle_collision
	.export		_check_main_input
	.export		_update_skull
	.export		_draw_skull
	.export		_draw_paddles
	.export		_draw_sprites
	.export		_move_skull_map
	.export		_fadeout
	.export		_fadein
	.export		_brightout
	.export		_wait_input
	.export		_wait
	.export		_play_story
	.export		_main

.segment	"DATA"

_brightness:
	.byte	$04
_exp:
	.byte	$30,$30,$30,$30,$30,$30,$30,$30,$00

.segment	"RODATA"

_empty_line:
	.byte	$20,$20,$20,$20,$20,$20,$20,$20,$20,$20,$20,$20,$20,$20,$20,$20
	.byte	$20,$20,$20,$20,$20,$20,$20,$00
_dialogs:
	.byte	$57,$68,$65,$72,$65,$2E,$2E,$2E,$20,$00
	.res	14,$00
	.byte	$57,$68,$65,$72,$65,$20,$61,$6D,$20,$49,$3F,$00
	.res	12,$00
	.byte	$44,$6F,$20,$6E,$6F,$74,$20,$62,$65,$20,$61,$66,$72,$61,$69,$64
	.byte	$2E,$00
	.res	6,$00
	.byte	$49,$20,$77,$61,$73,$20,$73,$65,$6E,$74,$20,$74,$6F,$20,$68,$65
	.byte	$6C,$70,$20,$79,$6F,$75,$00
	.res	1,$00
	.byte	$59,$6F,$75,$20,$61,$72,$65,$20,$61,$62,$6F,$75,$74,$20,$74,$6F
	.byte	$20,$65,$6E,$74,$65,$72,$00
	.res	1,$00
	.byte	$74,$68,$65,$20,$54,$72,$69,$61,$6C,$20,$6F,$66,$20,$4B,$68,$61
	.byte	$72,$7A,$6F,$69,$64,$21,$00
	.res	1,$00
	.byte	$59,$6F,$75,$20,$6D,$75,$73,$74,$20,$67,$6F,$20,$62,$61,$63,$6B
	.byte	$20,$74,$6F,$00
	.res	4,$00
	.byte	$74,$68,$65,$20,$63,$61,$73,$74,$6C,$65,$2C,$20,$61,$6E,$64,$20
	.byte	$64,$65,$66,$65,$61,$74,$00
	.res	1,$00
	.byte	$74,$68,$69,$73,$20,$65,$76,$69,$6C,$20,$6E,$65,$63,$72,$6F,$6D
	.byte	$61,$6E,$74,$00
	.res	4,$00
	.byte	$48,$69,$74,$20,$61,$6C,$6C,$20,$74,$68,$65,$20,$74,$6F,$6D,$62
	.byte	$73,$74,$6F,$6E,$65,$73,$00
	.res	1,$00
	.byte	$74,$6F,$20,$67,$65,$74,$20,$6F,$75,$74,$20,$6F,$66,$20,$68,$65
	.byte	$72,$65,$00
	.res	5,$00
	.byte	$57,$65,$27,$6C,$6C,$20,$6D,$65,$65,$74,$20,$61,$67,$61,$69,$6E
	.byte	$20,$73,$6F,$6F,$6E,$21,$00
	.res	1,$00
	.byte	$54,$61,$6B,$65,$20,$74,$68,$69,$73,$21,$00
	.res	13,$00
	.byte	$55,$73,$65,$20,$69,$74,$20,$69,$66,$20,$79,$6F,$75,$20,$67,$65
	.byte	$74,$20,$73,$74,$75,$63,$6B,$00
	.byte	$4A,$75,$73,$74,$20,$70,$72,$65,$73,$73,$20,$74,$68,$65,$20,$42
	.byte	$20,$62,$75,$74,$74,$6F,$6E,$00
.segment	"STARTUP"
_forest_col_01:
	.byte	$11
	.byte	$11
	.byte	$11
	.byte	$11
	.byte	$11
	.byte	$11
	.byte	$11
	.byte	$11
	.byte	$11
	.byte	$11
	.byte	$11
	.byte	$11
	.byte	$11
	.byte	$11
	.byte	$11
	.byte	$11
	.byte	$11
	.byte	$11
	.byte	$11
	.byte	$11
	.byte	$11
	.byte	$11
	.byte	$11
	.byte	$11
	.byte	$11
	.byte	$11
	.byte	$11
	.byte	$11
	.byte	$11
	.byte	$11
	.byte	$11
	.byte	$11
	.byte	$11
	.byte	$11
	.byte	$11
	.byte	$11
	.byte	$11
	.byte	$11
	.byte	$11
	.byte	$11
	.byte	$11
	.byte	$11
	.byte	$11
	.byte	$11
	.byte	$11
	.byte	$11
	.byte	$11
	.byte	$11
	.byte	$11
	.byte	$11
	.byte	$00
	.byte	$00
	.byte	$00
	.byte	$00
	.byte	$11
	.byte	$11
	.byte	$11
	.byte	$11
	.byte	$00
	.byte	$00
	.byte	$00
	.byte	$00
	.byte	$11
	.byte	$11
	.byte	$11
	.byte	$11
	.byte	$06
	.byte	$66
	.byte	$66
	.byte	$60
	.byte	$11
	.byte	$11
	.byte	$11
	.byte	$11
	.byte	$06
	.byte	$66
	.byte	$66
	.byte	$60
	.byte	$11
	.byte	$11
	.byte	$11
	.byte	$11
	.byte	$06
	.byte	$66
	.byte	$66
	.byte	$60
	.byte	$00
	.byte	$00
	.byte	$00
	.byte	$00
	.byte	$06
	.byte	$66
	.byte	$66
	.byte	$60
	.byte	$11
	.byte	$11
	.byte	$11
	.byte	$11
	.byte	$00
	.byte	$00
	.byte	$00
	.byte	$00
	.byte	$00
	.byte	$00
	.byte	$00
	.byte	$00
	.byte	$00
	.byte	$00
	.byte	$00
	.byte	$00
	.byte	$11
	.byte	$11
	.byte	$11
	.byte	$11
	.byte	$11
	.byte	$00
	.byte	$00
	.byte	$00
	.byte	$00
	.byte	$00
	.byte	$00
	.byte	$00
	.byte	$00
	.byte	$00
	.byte	$00
	.byte	$11
	.byte	$11
	.byte	$11
	.byte	$11
	.byte	$11
	.byte	$11
	.byte	$10
	.byte	$00
	.byte	$00
	.byte	$00
	.byte	$00
	.byte	$00
	.byte	$00
	.byte	$00
	.byte	$00
	.byte	$01
	.byte	$11
	.byte	$11
	.byte	$11
	.byte	$11
	.byte	$11
	.byte	$11
	.byte	$11
	.byte	$33
	.byte	$33
	.byte	$33
	.byte	$33
	.byte	$33
	.byte	$33
	.byte	$33
	.byte	$33
	.byte	$11
	.byte	$11
	.byte	$11
	.byte	$11
	.byte	$11
	.byte	$11
	.byte	$11
	.byte	$11
	.byte	$33
	.byte	$33
	.byte	$33
	.byte	$33
	.byte	$33
	.byte	$33
	.byte	$33
	.byte	$33
	.byte	$11
	.byte	$11
	.byte	$11
	.byte	$11
	.byte	$11
	.byte	$11
	.byte	$11
	.byte	$11
	.byte	$33
	.byte	$33
	.byte	$33
	.byte	$33
	.byte	$33
	.byte	$33
	.byte	$33
	.byte	$33
	.byte	$11
	.byte	$11
	.byte	$11
	.byte	$11
	.byte	$11
	.byte	$11
	.byte	$11
	.byte	$10
	.byte	$00
	.byte	$00
	.byte	$00
	.byte	$00
	.byte	$00
	.byte	$00
	.byte	$00
	.byte	$00
	.byte	$01
	.byte	$11
	.byte	$11
	.byte	$11
	.byte	$11
	.byte	$11
	.byte	$11
	.byte	$00
	.byte	$00
	.byte	$00
	.byte	$00
	.byte	$00
	.byte	$00
	.byte	$00
	.byte	$00
	.byte	$00
	.byte	$00
	.byte	$11
	.byte	$11
	.byte	$11
	.byte	$11
	.byte	$11
	.byte	$11
	.byte	$00
	.byte	$66
	.byte	$66
	.byte	$66
	.byte	$66
	.byte	$66
	.byte	$66
	.byte	$66
	.byte	$66
	.byte	$00
	.byte	$11
	.byte	$11
	.byte	$11
	.byte	$11
	.byte	$11
	.byte	$00
	.byte	$00
	.byte	$66
	.byte	$66
	.byte	$66
	.byte	$66
	.byte	$66
	.byte	$66
	.byte	$66
	.byte	$66
	.byte	$00
	.byte	$00
	.byte	$11
	.byte	$11
	.byte	$11
	.byte	$11
	.byte	$00
	.byte	$00
	.byte	$55
	.byte	$55
	.byte	$55
	.byte	$55
	.byte	$55
	.byte	$55
	.byte	$55
	.byte	$55
	.byte	$00
	.byte	$00
	.byte	$11
	.byte	$11
	.byte	$11
	.byte	$11
	.byte	$00
	.byte	$00
	.byte	$00
	.byte	$00
	.byte	$00
	.byte	$00
	.byte	$00
	.byte	$00
	.byte	$00
	.byte	$00
	.byte	$00
	.byte	$00
	.byte	$11
	.byte	$11
	.byte	$11
	.byte	$11
	.byte	$00
	.byte	$00
	.byte	$00
	.byte	$00
	.byte	$00
	.byte	$00
	.byte	$00
	.byte	$00
	.byte	$00
	.byte	$00
	.byte	$00
	.byte	$00
	.byte	$11
	.byte	$11
	.byte	$11
	.byte	$11
	.byte	$00
	.byte	$00
	.byte	$00
	.byte	$00
	.byte	$00
	.byte	$00
	.byte	$00
	.byte	$00
	.byte	$00
	.byte	$00
	.byte	$00
	.byte	$00
	.byte	$11
	.byte	$11
	.byte	$11
	.byte	$11
	.byte	$00
	.byte	$00
	.byte	$00
	.byte	$00
	.byte	$00
	.byte	$00
	.byte	$00
	.byte	$00
	.byte	$00
	.byte	$00
	.byte	$00
	.byte	$00
	.byte	$11
	.byte	$11
	.byte	$11
	.byte	$11
	.byte	$00
	.byte	$00
	.byte	$00
	.byte	$00
	.byte	$00
	.byte	$00
	.byte	$00
	.byte	$00
	.byte	$00
	.byte	$00
	.byte	$00
	.byte	$00
	.byte	$11
	.byte	$11
	.byte	$11
	.byte	$11
	.byte	$22
	.byte	$22
	.byte	$22
	.byte	$22
	.byte	$22
	.byte	$22
	.byte	$22
	.byte	$22
	.byte	$22
	.byte	$22
	.byte	$22
	.byte	$22
	.byte	$11
	.byte	$11
_forest_col_02:
	.byte	$11
	.byte	$11
	.byte	$11
	.byte	$11
	.byte	$11
	.byte	$11
	.byte	$11
	.byte	$11
	.byte	$11
	.byte	$11
	.byte	$11
	.byte	$11
	.byte	$11
	.byte	$11
	.byte	$11
	.byte	$11
	.byte	$11
	.byte	$11
	.byte	$22
	.byte	$22
	.byte	$22
	.byte	$22
	.byte	$22
	.byte	$22
	.byte	$22
	.byte	$22
	.byte	$22
	.byte	$22
	.byte	$22
	.byte	$22
	.byte	$11
	.byte	$11
	.byte	$11
	.byte	$11
	.byte	$00
	.byte	$00
	.byte	$00
	.byte	$00
	.byte	$00
	.byte	$00
	.byte	$00
	.byte	$00
	.byte	$00
	.byte	$00
	.byte	$00
	.byte	$00
	.byte	$11
	.byte	$11
	.byte	$11
	.byte	$20
	.byte	$00
	.byte	$00
	.byte	$00
	.byte	$00
	.byte	$00
	.byte	$00
	.byte	$00
	.byte	$00
	.byte	$00
	.byte	$00
	.byte	$00
	.byte	$00
	.byte	$02
	.byte	$11
	.byte	$11
	.byte	$20
	.byte	$00
	.byte	$66
	.byte	$66
	.byte	$00
	.byte	$00
	.byte	$00
	.byte	$00
	.byte	$00
	.byte	$00
	.byte	$66
	.byte	$66
	.byte	$00
	.byte	$02
	.byte	$11
	.byte	$11
	.byte	$20
	.byte	$00
	.byte	$66
	.byte	$66
	.byte	$00
	.byte	$00
	.byte	$00
	.byte	$00
	.byte	$00
	.byte	$00
	.byte	$66
	.byte	$66
	.byte	$00
	.byte	$02
	.byte	$11
	.byte	$11
	.byte	$20
	.byte	$00
	.byte	$66
	.byte	$66
	.byte	$00
	.byte	$00
	.byte	$00
	.byte	$00
	.byte	$00
	.byte	$00
	.byte	$66
	.byte	$66
	.byte	$00
	.byte	$02
	.byte	$11
	.byte	$11
	.byte	$20
	.byte	$00
	.byte	$66
	.byte	$66
	.byte	$50
	.byte	$00
	.byte	$55
	.byte	$55
	.byte	$00
	.byte	$05
	.byte	$66
	.byte	$66
	.byte	$00
	.byte	$02
	.byte	$11
	.byte	$11
	.byte	$20
	.byte	$00
	.byte	$00
	.byte	$00
	.byte	$05
	.byte	$05
	.byte	$55
	.byte	$55
	.byte	$50
	.byte	$50
	.byte	$00
	.byte	$00
	.byte	$00
	.byte	$02
	.byte	$11
	.byte	$11
	.byte	$20
	.byte	$00
	.byte	$00
	.byte	$00
	.byte	$00
	.byte	$50
	.byte	$55
	.byte	$55
	.byte	$05
	.byte	$00
	.byte	$00
	.byte	$00
	.byte	$00
	.byte	$02
	.byte	$11
	.byte	$11
	.byte	$20
	.byte	$00
	.byte	$00
	.byte	$00
	.byte	$00
	.byte	$50
	.byte	$05
	.byte	$50
	.byte	$05
	.byte	$00
	.byte	$00
	.byte	$00
	.byte	$00
	.byte	$02
	.byte	$11
	.byte	$11
	.byte	$20
	.byte	$00
	.byte	$00
	.byte	$00
	.byte	$00
	.byte	$55
	.byte	$55
	.byte	$55
	.byte	$55
	.byte	$00
	.byte	$00
	.byte	$00
	.byte	$00
	.byte	$02
	.byte	$11
	.byte	$11
	.byte	$20
	.byte	$00
	.byte	$00
	.byte	$00
	.byte	$00
	.byte	$00
	.byte	$55
	.byte	$55
	.byte	$00
	.byte	$00
	.byte	$00
	.byte	$00
	.byte	$00
	.byte	$02
	.byte	$11
	.byte	$11
	.byte	$20
	.byte	$00
	.byte	$00
	.byte	$00
	.byte	$00
	.byte	$00
	.byte	$55
	.byte	$55
	.byte	$00
	.byte	$00
	.byte	$00
	.byte	$00
	.byte	$00
	.byte	$02
	.byte	$11
	.byte	$11
	.byte	$20
	.byte	$00
	.byte	$00
	.byte	$00
	.byte	$00
	.byte	$50
	.byte	$00
	.byte	$00
	.byte	$05
	.byte	$00
	.byte	$00
	.byte	$00
	.byte	$00
	.byte	$02
	.byte	$11
	.byte	$11
	.byte	$20
	.byte	$00
	.byte	$00
	.byte	$00
	.byte	$05
	.byte	$00
	.byte	$55
	.byte	$55
	.byte	$00
	.byte	$50
	.byte	$00
	.byte	$00
	.byte	$00
	.byte	$02
	.byte	$11
	.byte	$11
	.byte	$20
	.byte	$00
	.byte	$66
	.byte	$66
	.byte	$50
	.byte	$00
	.byte	$00
	.byte	$00
	.byte	$00
	.byte	$05
	.byte	$66
	.byte	$66
	.byte	$00
	.byte	$02
	.byte	$11
	.byte	$11
	.byte	$20
	.byte	$00
	.byte	$66
	.byte	$66
	.byte	$00
	.byte	$00
	.byte	$00
	.byte	$00
	.byte	$00
	.byte	$00
	.byte	$66
	.byte	$66
	.byte	$00
	.byte	$02
	.byte	$11
	.byte	$11
	.byte	$20
	.byte	$00
	.byte	$66
	.byte	$66
	.byte	$00
	.byte	$00
	.byte	$00
	.byte	$00
	.byte	$00
	.byte	$00
	.byte	$66
	.byte	$66
	.byte	$00
	.byte	$02
	.byte	$11
	.byte	$11
	.byte	$20
	.byte	$00
	.byte	$66
	.byte	$66
	.byte	$00
	.byte	$00
	.byte	$00
	.byte	$00
	.byte	$00
	.byte	$00
	.byte	$66
	.byte	$66
	.byte	$00
	.byte	$02
	.byte	$11
	.byte	$11
	.byte	$20
	.byte	$00
	.byte	$00
	.byte	$00
	.byte	$00
	.byte	$00
	.byte	$00
	.byte	$00
	.byte	$00
	.byte	$00
	.byte	$00
	.byte	$00
	.byte	$00
	.byte	$02
	.byte	$11
	.byte	$11
	.byte	$11
	.byte	$00
	.byte	$00
	.byte	$00
	.byte	$00
	.byte	$00
	.byte	$00
	.byte	$00
	.byte	$00
	.byte	$00
	.byte	$00
	.byte	$00
	.byte	$00
	.byte	$11
	.byte	$11
	.byte	$11
	.byte	$11
	.byte	$22
	.byte	$22
	.byte	$22
	.byte	$22
	.byte	$22
	.byte	$22
	.byte	$22
	.byte	$22
	.byte	$22
	.byte	$22
	.byte	$22
	.byte	$22
	.byte	$11
	.byte	$11
_cemetery_col:
	.byte	$11
	.byte	$11
	.byte	$11
	.byte	$11
	.byte	$11
	.byte	$11
	.byte	$11
	.byte	$11
	.byte	$11
	.byte	$11
	.byte	$11
	.byte	$11
	.byte	$11
	.byte	$11
	.byte	$11
	.byte	$11
	.byte	$11
	.byte	$11
	.byte	$11
	.byte	$11
	.byte	$11
	.byte	$11
	.byte	$11
	.byte	$11
	.byte	$11
	.byte	$11
	.byte	$11
	.byte	$11
	.byte	$11
	.byte	$11
	.byte	$11
	.byte	$11
	.byte	$11
	.byte	$11
	.byte	$11
	.byte	$11
	.byte	$11
	.byte	$11
	.byte	$11
	.byte	$11
	.byte	$11
	.byte	$11
	.byte	$11
	.byte	$11
	.byte	$11
	.byte	$11
	.byte	$11
	.byte	$11
	.byte	$11
	.byte	$11
	.byte	$11
	.byte	$11
	.byte	$11
	.byte	$11
	.byte	$11
	.byte	$11
	.byte	$11
	.byte	$11
	.byte	$11
	.byte	$11
	.byte	$11
	.byte	$11
	.byte	$11
	.byte	$11
	.byte	$11
	.byte	$11
	.byte	$11
	.byte	$11
	.byte	$11
	.byte	$11
	.byte	$11
	.byte	$11
	.byte	$11
	.byte	$11
	.byte	$11
	.byte	$11
	.byte	$11
	.byte	$11
	.byte	$11
	.byte	$11
	.byte	$11
	.byte	$10
	.byte	$00
	.byte	$00
	.byte	$00
	.byte	$00
	.byte	$00
	.byte	$00
	.byte	$00
	.byte	$00
	.byte	$00
	.byte	$00
	.byte	$00
	.byte	$00
	.byte	$01
	.byte	$11
	.byte	$11
	.byte	$10
	.byte	$00
	.byte	$00
	.byte	$00
	.byte	$00
	.byte	$00
	.byte	$00
	.byte	$00
	.byte	$00
	.byte	$00
	.byte	$00
	.byte	$00
	.byte	$00
	.byte	$01
	.byte	$11
	.byte	$11
	.byte	$10
	.byte	$77
	.byte	$00
	.byte	$77
	.byte	$00
	.byte	$77
	.byte	$00
	.byte	$00
	.byte	$77
	.byte	$00
	.byte	$77
	.byte	$00
	.byte	$77
	.byte	$01
	.byte	$11
	.byte	$11
	.byte	$10
	.byte	$77
	.byte	$00
	.byte	$77
	.byte	$00
	.byte	$77
	.byte	$00
	.byte	$00
	.byte	$77
	.byte	$00
	.byte	$77
	.byte	$00
	.byte	$77
	.byte	$01
	.byte	$11
	.byte	$11
	.byte	$10
	.byte	$00
	.byte	$00
	.byte	$00
	.byte	$00
	.byte	$00
	.byte	$00
	.byte	$00
	.byte	$00
	.byte	$00
	.byte	$00
	.byte	$00
	.byte	$00
	.byte	$01
	.byte	$11
	.byte	$11
	.byte	$10
	.byte	$00
	.byte	$00
	.byte	$00
	.byte	$00
	.byte	$00
	.byte	$00
	.byte	$00
	.byte	$00
	.byte	$00
	.byte	$00
	.byte	$00
	.byte	$00
	.byte	$01
	.byte	$11
	.byte	$11
	.byte	$10
	.byte	$77
	.byte	$00
	.byte	$77
	.byte	$00
	.byte	$77
	.byte	$00
	.byte	$00
	.byte	$77
	.byte	$00
	.byte	$77
	.byte	$00
	.byte	$77
	.byte	$01
	.byte	$11
	.byte	$11
	.byte	$10
	.byte	$77
	.byte	$00
	.byte	$77
	.byte	$00
	.byte	$77
	.byte	$00
	.byte	$00
	.byte	$77
	.byte	$00
	.byte	$77
	.byte	$00
	.byte	$77
	.byte	$01
	.byte	$11
	.byte	$11
	.byte	$10
	.byte	$00
	.byte	$00
	.byte	$00
	.byte	$00
	.byte	$00
	.byte	$00
	.byte	$00
	.byte	$00
	.byte	$00
	.byte	$00
	.byte	$00
	.byte	$00
	.byte	$01
	.byte	$11
	.byte	$11
	.byte	$10
	.byte	$00
	.byte	$00
	.byte	$00
	.byte	$00
	.byte	$00
	.byte	$00
	.byte	$00
	.byte	$00
	.byte	$00
	.byte	$00
	.byte	$00
	.byte	$00
	.byte	$01
	.byte	$11
	.byte	$11
	.byte	$10
	.byte	$77
	.byte	$00
	.byte	$77
	.byte	$00
	.byte	$00
	.byte	$00
	.byte	$00
	.byte	$00
	.byte	$00
	.byte	$77
	.byte	$00
	.byte	$77
	.byte	$01
	.byte	$11
	.byte	$11
	.byte	$10
	.byte	$77
	.byte	$00
	.byte	$77
	.byte	$00
	.byte	$00
	.byte	$00
	.byte	$00
	.byte	$00
	.byte	$00
	.byte	$77
	.byte	$00
	.byte	$77
	.byte	$01
	.byte	$11
	.byte	$11
	.byte	$10
	.byte	$00
	.byte	$00
	.byte	$00
	.byte	$00
	.byte	$00
	.byte	$00
	.byte	$00
	.byte	$00
	.byte	$00
	.byte	$00
	.byte	$00
	.byte	$00
	.byte	$01
	.byte	$11
	.byte	$11
	.byte	$10
	.byte	$00
	.byte	$00
	.byte	$00
	.byte	$00
	.byte	$00
	.byte	$00
	.byte	$00
	.byte	$00
	.byte	$00
	.byte	$00
	.byte	$00
	.byte	$00
	.byte	$01
	.byte	$11
	.byte	$11
	.byte	$10
	.byte	$00
	.byte	$00
	.byte	$00
	.byte	$00
	.byte	$00
	.byte	$00
	.byte	$00
	.byte	$00
	.byte	$00
	.byte	$00
	.byte	$00
	.byte	$00
	.byte	$01
	.byte	$11
	.byte	$11
	.byte	$10
	.byte	$00
	.byte	$00
	.byte	$00
	.byte	$00
	.byte	$00
	.byte	$00
	.byte	$00
	.byte	$00
	.byte	$00
	.byte	$00
	.byte	$00
	.byte	$00
	.byte	$01
	.byte	$11
	.byte	$11
	.byte	$10
	.byte	$00
	.byte	$00
	.byte	$00
	.byte	$00
	.byte	$00
	.byte	$00
	.byte	$00
	.byte	$00
	.byte	$00
	.byte	$00
	.byte	$00
	.byte	$00
	.byte	$01
	.byte	$11
	.byte	$11
	.byte	$11
	.byte	$11
	.byte	$11
	.byte	$11
	.byte	$11
	.byte	$11
	.byte	$11
	.byte	$11
	.byte	$11
	.byte	$11
	.byte	$11
	.byte	$11
	.byte	$11
	.byte	$11
	.byte	$11
_altar:
	.byte	$02
	.byte	$01
	.byte	$02
	.byte	$2A
	.byte	$8F
	.byte	$01
	.byte	$02
	.byte	$09
	.byte	$8D
	.byte	$01
	.byte	$01
	.byte	$8E
	.byte	$01
	.byte	$02
	.byte	$0B
	.byte	$8F
	.byte	$01
	.byte	$02
	.byte	$09
	.byte	$8D
	.byte	$01
	.byte	$02
	.byte	$05
	.byte	$9D
	.byte	$9E
	.byte	$01
	.byte	$01
	.byte	$8D
	.byte	$01
	.byte	$02
	.byte	$0E
	.byte	$9F
	.byte	$01
	.byte	$02
	.byte	$09
	.byte	$9F
	.byte	$01
	.byte	$02
	.byte	$0C
	.byte	$AD
	.byte	$AE
	.byte	$AD
	.byte	$AE
	.byte	$AD
	.byte	$AE
	.byte	$AD
	.byte	$AF
	.byte	$AE
	.byte	$AD
	.byte	$AE
	.byte	$AD
	.byte	$AE
	.byte	$AD
	.byte	$AE
	.byte	$AD
	.byte	$AE
	.byte	$AD
	.byte	$AF
	.byte	$AE
	.byte	$AD
	.byte	$AE
	.byte	$01
	.byte	$02
	.byte	$25
	.byte	$9B
	.byte	$9C
	.byte	$01
	.byte	$02
	.byte	$19
	.byte	$9B
	.byte	$9C
	.byte	$01
	.byte	$01
	.byte	$89
	.byte	$8A
	.byte	$01
	.byte	$02
	.byte	$0B
	.byte	$84
	.byte	$94
	.byte	$01
	.byte	$02
	.byte	$0B
	.byte	$89
	.byte	$8A
	.byte	$01
	.byte	$01
	.byte	$99
	.byte	$9A
	.byte	$01
	.byte	$02
	.byte	$0A
	.byte	$B3
	.byte	$A4
	.byte	$B9
	.byte	$B4
	.byte	$01
	.byte	$02
	.byte	$0A
	.byte	$99
	.byte	$9A
	.byte	$01
	.byte	$01
	.byte	$A9
	.byte	$AA
	.byte	$01
	.byte	$02
	.byte	$04
	.byte	$B1
	.byte	$01
	.byte	$01
	.byte	$B1
	.byte	$01
	.byte	$01
	.byte	$B1
	.byte	$8B
	.byte	$8C
	.byte	$B1
	.byte	$01
	.byte	$01
	.byte	$B1
	.byte	$01
	.byte	$01
	.byte	$B1
	.byte	$01
	.byte	$02
	.byte	$04
	.byte	$A9
	.byte	$AA
	.byte	$01
	.byte	$01
	.byte	$AB
	.byte	$AC
	.byte	$01
	.byte	$02
	.byte	$04
	.byte	$B2
	.byte	$01
	.byte	$01
	.byte	$B2
	.byte	$01
	.byte	$01
	.byte	$B2
	.byte	$01
	.byte	$01
	.byte	$B2
	.byte	$01
	.byte	$01
	.byte	$B2
	.byte	$01
	.byte	$01
	.byte	$B2
	.byte	$01
	.byte	$02
	.byte	$04
	.byte	$AB
	.byte	$AC
	.byte	$01
	.byte	$02
	.byte	$06
	.byte	$00
	.byte	$00
	.byte	$B1
	.byte	$00
	.byte	$00
	.byte	$B1
	.byte	$00
	.byte	$00
	.byte	$B1
	.byte	$A2
	.byte	$A3
	.byte	$B1
	.byte	$00
	.byte	$00
	.byte	$B1
	.byte	$00
	.byte	$00
	.byte	$B1
	.byte	$00
	.byte	$00
	.byte	$01
	.byte	$02
	.byte	$09
	.byte	$00
	.byte	$00
	.byte	$01
	.byte	$02
	.byte	$13
	.byte	$00
	.byte	$00
	.byte	$01
	.byte	$02
	.byte	$30
	.byte	$81
	.byte	$82
	.byte	$81
	.byte	$82
	.byte	$81
	.byte	$82
	.byte	$01
	.byte	$02
	.byte	$18
	.byte	$80
	.byte	$91
	.byte	$85
	.byte	$86
	.byte	$87
	.byte	$88
	.byte	$93
	.byte	$80
	.byte	$01
	.byte	$02
	.byte	$16
	.byte	$80
	.byte	$A0
	.byte	$81
	.byte	$95
	.byte	$96
	.byte	$97
	.byte	$98
	.byte	$83
	.byte	$90
	.byte	$80
	.byte	$01
	.byte	$02
	.byte	$15
	.byte	$90
	.byte	$A0
	.byte	$91
	.byte	$A5
	.byte	$A6
	.byte	$A7
	.byte	$A8
	.byte	$92
	.byte	$A0
	.byte	$A0
	.byte	$01
	.byte	$02
	.byte	$15
	.byte	$A0
	.byte	$B0
	.byte	$A1
	.byte	$B5
	.byte	$B6
	.byte	$B7
	.byte	$B8
	.byte	$82
	.byte	$B0
	.byte	$A0
	.byte	$01
	.byte	$02
	.byte	$15
	.byte	$B0
	.byte	$00
	.byte	$91
	.byte	$93
	.byte	$91
	.byte	$93
	.byte	$91
	.byte	$93
	.byte	$00
	.byte	$B0
	.byte	$01
	.byte	$02
	.byte	$17
	.byte	$00
	.byte	$BA
	.byte	$BB
	.byte	$BC
	.byte	$BD
	.byte	$00
	.byte	$01
	.byte	$02
	.byte	$10
	.byte	$00
	.byte	$00
	.byte	$01
	.byte	$02
	.byte	$07
	.byte	$BA
	.byte	$BB
	.byte	$BB
	.byte	$BD
	.byte	$01
	.byte	$02
	.byte	$07
	.byte	$00
	.byte	$00
	.byte	$01
	.byte	$02
	.byte	$07
	.byte	$BE
	.byte	$BE
	.byte	$01
	.byte	$02
	.byte	$13
	.byte	$BE
	.byte	$BE
	.byte	$01
	.byte	$02
	.byte	$07
	.byte	$BF
	.byte	$BF
	.byte	$00
	.byte	$00
	.byte	$01
	.byte	$02
	.byte	$0F
	.byte	$00
	.byte	$00
	.byte	$BF
	.byte	$BF
	.byte	$01
	.byte	$02
	.byte	$09
	.byte	$BE
	.byte	$BE
	.byte	$01
	.byte	$02
	.byte	$0F
	.byte	$BE
	.byte	$BE
	.byte	$01
	.byte	$02
	.byte	$0B
	.byte	$BF
	.byte	$BF
	.byte	$00
	.byte	$02
	.byte	$0F
	.byte	$BF
	.byte	$BF
	.byte	$01
	.byte	$02
	.byte	$0D
	.byte	$BE
	.byte	$02
	.byte	$0F
	.byte	$01
	.byte	$02
	.byte	$0F
	.byte	$BF
	.byte	$02
	.byte	$0F
	.byte	$01
	.byte	$02
	.byte	$47
	.byte	$00
	.byte	$8A
	.byte	$88
	.byte	$30
	.byte	$20
	.byte	$C8
	.byte	$22
	.byte	$20
	.byte	$F0
	.byte	$0F
	.byte	$02
	.byte	$04
	.byte	$0B
	.byte	$F0
	.byte	$00
	.byte	$02
	.byte	$02
	.byte	$03
	.byte	$00
	.byte	$02
	.byte	$04
	.byte	$55
	.byte	$02
	.byte	$05
	.byte	$00
	.byte	$00
	.byte	$55
	.byte	$02
	.byte	$05
	.byte	$00
	.byte	$00
	.byte	$75
	.byte	$55
	.byte	$02
	.byte	$03
	.byte	$D5
	.byte	$00
	.byte	$00
	.byte	$0C
	.byte	$F5
	.byte	$02
	.byte	$03
	.byte	$03
	.byte	$00
	.byte	$02
	.byte	$07
	.byte	$00
	.byte	$02
	.byte	$00
_cemetery:
	.byte	$02
	.byte	$00
	.byte	$02
	.byte	$A0
	.byte	$11
	.byte	$02
	.byte	$0C
	.byte	$C3
	.byte	$C4
	.byte	$C5
	.byte	$C6
	.byte	$11
	.byte	$02
	.byte	$0C
	.byte	$00
	.byte	$00
	.byte	$11
	.byte	$02
	.byte	$0C
	.byte	$C7
	.byte	$11
	.byte	$11
	.byte	$C7
	.byte	$11
	.byte	$02
	.byte	$0C
	.byte	$00
	.byte	$00
	.byte	$11
	.byte	$FE
	.byte	$FF
	.byte	$FE
	.byte	$11
	.byte	$FE
	.byte	$FF
	.byte	$FE
	.byte	$FF
	.byte	$FE
	.byte	$FF
	.byte	$11
	.byte	$FF
	.byte	$C9
	.byte	$11
	.byte	$11
	.byte	$C9
	.byte	$FE
	.byte	$FF
	.byte	$FE
	.byte	$FF
	.byte	$FE
	.byte	$11
	.byte	$FE
	.byte	$FF
	.byte	$FE
	.byte	$FF
	.byte	$FE
	.byte	$FF
	.byte	$11
	.byte	$00
	.byte	$00
	.byte	$11
	.byte	$CA
	.byte	$02
	.byte	$02
	.byte	$CC
	.byte	$CA
	.byte	$02
	.byte	$05
	.byte	$CC
	.byte	$CA
	.byte	$C9
	.byte	$11
	.byte	$11
	.byte	$C9
	.byte	$CA
	.byte	$02
	.byte	$04
	.byte	$CC
	.byte	$CA
	.byte	$02
	.byte	$05
	.byte	$11
	.byte	$00
	.byte	$00
	.byte	$11
	.byte	$CB
	.byte	$02
	.byte	$0B
	.byte	$C7
	.byte	$C1
	.byte	$C2
	.byte	$CD
	.byte	$CB
	.byte	$02
	.byte	$0B
	.byte	$11
	.byte	$00
	.byte	$00
	.byte	$11
	.byte	$CE
	.byte	$10
	.byte	$01
	.byte	$02
	.byte	$0A
	.byte	$D1
	.byte	$D2
	.byte	$01
	.byte	$02
	.byte	$0A
	.byte	$10
	.byte	$CE
	.byte	$11
	.byte	$00
	.byte	$00
	.byte	$11
	.byte	$CE
	.byte	$10
	.byte	$11
	.byte	$02
	.byte	$0A
	.byte	$D1
	.byte	$D2
	.byte	$11
	.byte	$02
	.byte	$0A
	.byte	$10
	.byte	$CE
	.byte	$11
	.byte	$00
	.byte	$00
	.byte	$11
	.byte	$CE
	.byte	$10
	.byte	$D4
	.byte	$D5
	.byte	$11
	.byte	$11
	.byte	$D4
	.byte	$D5
	.byte	$11
	.byte	$11
	.byte	$E3
	.byte	$E4
	.byte	$11
	.byte	$D1
	.byte	$D2
	.byte	$11
	.byte	$D4
	.byte	$D5
	.byte	$11
	.byte	$11
	.byte	$E3
	.byte	$E4
	.byte	$11
	.byte	$11
	.byte	$D8
	.byte	$D9
	.byte	$10
	.byte	$CE
	.byte	$11
	.byte	$00
	.byte	$00
	.byte	$11
	.byte	$D3
	.byte	$10
	.byte	$D6
	.byte	$DB
	.byte	$11
	.byte	$11
	.byte	$D6
	.byte	$DB
	.byte	$11
	.byte	$11
	.byte	$E5
	.byte	$D7
	.byte	$11
	.byte	$D1
	.byte	$D2
	.byte	$11
	.byte	$D6
	.byte	$DB
	.byte	$11
	.byte	$11
	.byte	$E5
	.byte	$D7
	.byte	$11
	.byte	$11
	.byte	$D6
	.byte	$DB
	.byte	$10
	.byte	$D3
	.byte	$11
	.byte	$00
	.byte	$00
	.byte	$11
	.byte	$CE
	.byte	$10
	.byte	$11
	.byte	$11
	.byte	$DA
	.byte	$DA
	.byte	$11
	.byte	$02
	.byte	$05
	.byte	$DA
	.byte	$D1
	.byte	$D2
	.byte	$DA
	.byte	$11
	.byte	$02
	.byte	$05
	.byte	$DA
	.byte	$DA
	.byte	$11
	.byte	$11
	.byte	$10
	.byte	$CE
	.byte	$11
	.byte	$00
	.byte	$00
	.byte	$11
	.byte	$CE
	.byte	$10
	.byte	$11
	.byte	$11
	.byte	$DA
	.byte	$DA
	.byte	$11
	.byte	$02
	.byte	$05
	.byte	$DA
	.byte	$D1
	.byte	$D2
	.byte	$DA
	.byte	$11
	.byte	$02
	.byte	$05
	.byte	$DA
	.byte	$DA
	.byte	$11
	.byte	$11
	.byte	$10
	.byte	$CE
	.byte	$11
	.byte	$00
	.byte	$00
	.byte	$11
	.byte	$CE
	.byte	$10
	.byte	$D4
	.byte	$D5
	.byte	$11
	.byte	$11
	.byte	$E3
	.byte	$E4
	.byte	$11
	.byte	$11
	.byte	$D4
	.byte	$D5
	.byte	$11
	.byte	$D1
	.byte	$D2
	.byte	$11
	.byte	$E3
	.byte	$E4
	.byte	$11
	.byte	$11
	.byte	$D4
	.byte	$D5
	.byte	$11
	.byte	$11
	.byte	$D4
	.byte	$D5
	.byte	$10
	.byte	$CE
	.byte	$11
	.byte	$00
	.byte	$00
	.byte	$11
	.byte	$CE
	.byte	$10
	.byte	$D6
	.byte	$DB
	.byte	$11
	.byte	$11
	.byte	$E5
	.byte	$D7
	.byte	$11
	.byte	$DA
	.byte	$D6
	.byte	$DB
	.byte	$11
	.byte	$D1
	.byte	$D2
	.byte	$11
	.byte	$D6
	.byte	$D7
	.byte	$11
	.byte	$11
	.byte	$D6
	.byte	$DB
	.byte	$11
	.byte	$11
	.byte	$D6
	.byte	$DB
	.byte	$10
	.byte	$CE
	.byte	$11
	.byte	$00
	.byte	$00
	.byte	$11
	.byte	$D3
	.byte	$10
	.byte	$11
	.byte	$11
	.byte	$DA
	.byte	$DA
	.byte	$11
	.byte	$02
	.byte	$03
	.byte	$DC
	.byte	$DD
	.byte	$E0
	.byte	$11
	.byte	$02
	.byte	$08
	.byte	$DA
	.byte	$DA
	.byte	$11
	.byte	$11
	.byte	$10
	.byte	$D3
	.byte	$11
	.byte	$00
	.byte	$00
	.byte	$11
	.byte	$CE
	.byte	$10
	.byte	$11
	.byte	$11
	.byte	$DA
	.byte	$DA
	.byte	$11
	.byte	$02
	.byte	$03
	.byte	$DE
	.byte	$DF
	.byte	$E1
	.byte	$01
	.byte	$CF
	.byte	$E2
	.byte	$11
	.byte	$02
	.byte	$05
	.byte	$DA
	.byte	$DA
	.byte	$11
	.byte	$11
	.byte	$10
	.byte	$CE
	.byte	$11
	.byte	$00
	.byte	$00
	.byte	$11
	.byte	$CE
	.byte	$10
	.byte	$E3
	.byte	$E4
	.byte	$11
	.byte	$11
	.byte	$D4
	.byte	$D5
	.byte	$11
	.byte	$11
	.byte	$E6
	.byte	$C8
	.byte	$E8
	.byte	$E9
	.byte	$EC
	.byte	$ED
	.byte	$FD
	.byte	$11
	.byte	$02
	.byte	$02
	.byte	$E3
	.byte	$E4
	.byte	$11
	.byte	$11
	.byte	$D4
	.byte	$D5
	.byte	$10
	.byte	$CE
	.byte	$11
	.byte	$00
	.byte	$00
	.byte	$11
	.byte	$CE
	.byte	$10
	.byte	$E5
	.byte	$D7
	.byte	$11
	.byte	$11
	.byte	$E5
	.byte	$DB
	.byte	$11
	.byte	$02
	.byte	$02
	.byte	$E7
	.byte	$EA
	.byte	$EB
	.byte	$EE
	.byte	$EF
	.byte	$CF
	.byte	$11
	.byte	$02
	.byte	$02
	.byte	$E5
	.byte	$D7
	.byte	$11
	.byte	$11
	.byte	$D6
	.byte	$DB
	.byte	$10
	.byte	$CE
	.byte	$11
	.byte	$00
	.byte	$00
	.byte	$11
	.byte	$CE
	.byte	$10
	.byte	$11
	.byte	$02
	.byte	$04
	.byte	$DA
	.byte	$11
	.byte	$02
	.byte	$02
	.byte	$F1
	.byte	$F3
	.byte	$F4
	.byte	$F7
	.byte	$F8
	.byte	$FB
	.byte	$11
	.byte	$02
	.byte	$02
	.byte	$DA
	.byte	$DA
	.byte	$11
	.byte	$02
	.byte	$03
	.byte	$10
	.byte	$CE
	.byte	$11
	.byte	$00
	.byte	$00
	.byte	$11
	.byte	$D3
	.byte	$10
	.byte	$DA
	.byte	$11
	.byte	$02
	.byte	$07
	.byte	$F2
	.byte	$F5
	.byte	$F6
	.byte	$F9
	.byte	$FA
	.byte	$CF
	.byte	$11
	.byte	$02
	.byte	$06
	.byte	$DA
	.byte	$11
	.byte	$10
	.byte	$D3
	.byte	$11
	.byte	$00
	.byte	$00
	.byte	$11
	.byte	$CE
	.byte	$10
	.byte	$11
	.byte	$02
	.byte	$08
	.byte	$F1
	.byte	$FD
	.byte	$F1
	.byte	$F0
	.byte	$F1
	.byte	$FD
	.byte	$11
	.byte	$02
	.byte	$08
	.byte	$10
	.byte	$CE
	.byte	$11
	.byte	$00
	.byte	$00
	.byte	$11
	.byte	$CE
	.byte	$10
	.byte	$11
	.byte	$02
	.byte	$17
	.byte	$10
	.byte	$CE
	.byte	$11
	.byte	$00
	.byte	$00
	.byte	$11
	.byte	$CE
	.byte	$10
	.byte	$02
	.byte	$19
	.byte	$CE
	.byte	$11
	.byte	$00
	.byte	$00
	.byte	$11
	.byte	$D3
	.byte	$02
	.byte	$02
	.byte	$CE
	.byte	$D3
	.byte	$02
	.byte	$02
	.byte	$CE
	.byte	$D3
	.byte	$02
	.byte	$02
	.byte	$CE
	.byte	$D3
	.byte	$02
	.byte	$03
	.byte	$CE
	.byte	$D3
	.byte	$02
	.byte	$02
	.byte	$CE
	.byte	$D3
	.byte	$02
	.byte	$02
	.byte	$CE
	.byte	$D3
	.byte	$02
	.byte	$02
	.byte	$11
	.byte	$00
	.byte	$00
	.byte	$11
	.byte	$02
	.byte	$1D
	.byte	$00
	.byte	$02
	.byte	$20
	.byte	$FF
	.byte	$02
	.byte	$07
	.byte	$6A
	.byte	$5A
	.byte	$5A
	.byte	$9A
	.byte	$6A
	.byte	$5A
	.byte	$5A
	.byte	$9A
	.byte	$2A
	.byte	$5A
	.byte	$02
	.byte	$05
	.byte	$8A
	.byte	$22
	.byte	$56
	.byte	$02
	.byte	$02
	.byte	$59
	.byte	$02
	.byte	$02
	.byte	$88
	.byte	$22
	.byte	$56
	.byte	$56
	.byte	$A6
	.byte	$69
	.byte	$59
	.byte	$59
	.byte	$88
	.byte	$22
	.byte	$56
	.byte	$56
	.byte	$22
	.byte	$88
	.byte	$59
	.byte	$59
	.byte	$88
	.byte	$22
	.byte	$05
	.byte	$05
	.byte	$0A
	.byte	$0A
	.byte	$05
	.byte	$05
	.byte	$88
	.byte	$0A
	.byte	$02
	.byte	$06
	.byte	$0A
	.byte	$02
	.byte	$00
_map:
	.byte	$01
	.byte	$F1
	.byte	$01
	.byte	$A1
	.byte	$81
	.byte	$01
	.byte	$1B
	.byte	$F1
	.byte	$01
	.byte	$03
	.byte	$81
	.byte	$96
	.byte	$98
	.byte	$01
	.byte	$17
	.byte	$9C
	.byte	$81
	.byte	$F1
	.byte	$01
	.byte	$03
	.byte	$81
	.byte	$97
	.byte	$81
	.byte	$01
	.byte	$0A
	.byte	$99
	.byte	$81
	.byte	$9A
	.byte	$81
	.byte	$01
	.byte	$05
	.byte	$9B
	.byte	$81
	.byte	$01
	.byte	$02
	.byte	$97
	.byte	$81
	.byte	$F1
	.byte	$01
	.byte	$03
	.byte	$81
	.byte	$97
	.byte	$81
	.byte	$9D
	.byte	$A0
	.byte	$81
	.byte	$A3
	.byte	$81
	.byte	$01
	.byte	$02
	.byte	$A7
	.byte	$A8
	.byte	$AB
	.byte	$AC
	.byte	$AF
	.byte	$B0
	.byte	$B3
	.byte	$B4
	.byte	$81
	.byte	$01
	.byte	$02
	.byte	$B8
	.byte	$BB
	.byte	$BC
	.byte	$BE
	.byte	$BF
	.byte	$97
	.byte	$81
	.byte	$F1
	.byte	$01
	.byte	$03
	.byte	$81
	.byte	$97
	.byte	$9E
	.byte	$9F
	.byte	$A1
	.byte	$A2
	.byte	$A4
	.byte	$A5
	.byte	$A6
	.byte	$81
	.byte	$A9
	.byte	$AA
	.byte	$AD
	.byte	$AE
	.byte	$B1
	.byte	$B2
	.byte	$B5
	.byte	$B6
	.byte	$B7
	.byte	$81
	.byte	$B9
	.byte	$BA
	.byte	$BD
	.byte	$81
	.byte	$01
	.byte	$02
	.byte	$97
	.byte	$81
	.byte	$F1
	.byte	$01
	.byte	$03
	.byte	$81
	.byte	$97
	.byte	$81
	.byte	$01
	.byte	$08
	.byte	$C0
	.byte	$C1
	.byte	$C2
	.byte	$C3
	.byte	$C4
	.byte	$C5
	.byte	$C6
	.byte	$C7
	.byte	$81
	.byte	$01
	.byte	$06
	.byte	$97
	.byte	$81
	.byte	$F1
	.byte	$01
	.byte	$03
	.byte	$81
	.byte	$97
	.byte	$81
	.byte	$01
	.byte	$14
	.byte	$C8
	.byte	$81
	.byte	$81
	.byte	$97
	.byte	$81
	.byte	$F1
	.byte	$01
	.byte	$03
	.byte	$81
	.byte	$97
	.byte	$C9
	.byte	$CA
	.byte	$81
	.byte	$81
	.byte	$C8
	.byte	$81
	.byte	$01
	.byte	$02
	.byte	$CD
	.byte	$CE
	.byte	$01
	.byte	$06
	.byte	$D0
	.byte	$81
	.byte	$01
	.byte	$05
	.byte	$C8
	.byte	$97
	.byte	$81
	.byte	$F1
	.byte	$01
	.byte	$03
	.byte	$81
	.byte	$97
	.byte	$81
	.byte	$CB
	.byte	$CC
	.byte	$81
	.byte	$81
	.byte	$C8
	.byte	$81
	.byte	$81
	.byte	$CF
	.byte	$81
	.byte	$81
	.byte	$CE
	.byte	$01
	.byte	$02
	.byte	$81
	.byte	$81
	.byte	$D1
	.byte	$81
	.byte	$01
	.byte	$06
	.byte	$97
	.byte	$81
	.byte	$F1
	.byte	$01
	.byte	$03
	.byte	$81
	.byte	$97
	.byte	$81
	.byte	$81
	.byte	$D2
	.byte	$D3
	.byte	$81
	.byte	$01
	.byte	$03
	.byte	$D9
	.byte	$DA
	.byte	$81
	.byte	$01
	.byte	$04
	.byte	$DA
	.byte	$DC
	.byte	$81
	.byte	$01
	.byte	$02
	.byte	$BE
	.byte	$BF
	.byte	$81
	.byte	$81
	.byte	$97
	.byte	$81
	.byte	$F1
	.byte	$01
	.byte	$03
	.byte	$81
	.byte	$97
	.byte	$81
	.byte	$01
	.byte	$02
	.byte	$D4
	.byte	$D5
	.byte	$D6
	.byte	$D7
	.byte	$D8
	.byte	$81
	.byte	$81
	.byte	$D9
	.byte	$DA
	.byte	$DB
	.byte	$DA
	.byte	$DC
	.byte	$81
	.byte	$01
	.byte	$08
	.byte	$97
	.byte	$81
	.byte	$F1
	.byte	$01
	.byte	$03
	.byte	$81
	.byte	$97
	.byte	$81
	.byte	$C8
	.byte	$81
	.byte	$01
	.byte	$03
	.byte	$DD
	.byte	$DE
	.byte	$E0
	.byte	$E0
	.byte	$E3
	.byte	$81
	.byte	$E6
	.byte	$81
	.byte	$01
	.byte	$04
	.byte	$E3
	.byte	$E0
	.byte	$EC
	.byte	$92
	.byte	$92
	.byte	$EC
	.byte	$97
	.byte	$81
	.byte	$F1
	.byte	$01
	.byte	$03
	.byte	$81
	.byte	$97
	.byte	$81
	.byte	$01
	.byte	$02
	.byte	$C8
	.byte	$81
	.byte	$CD
	.byte	$D0
	.byte	$DF
	.byte	$E1
	.byte	$E2
	.byte	$E4
	.byte	$E5
	.byte	$E7
	.byte	$E8
	.byte	$E9
	.byte	$E9
	.byte	$EA
	.byte	$E5
	.byte	$EB
	.byte	$01
	.byte	$03
	.byte	$E5
	.byte	$90
	.byte	$97
	.byte	$81
	.byte	$F1
	.byte	$01
	.byte	$03
	.byte	$81
	.byte	$97
	.byte	$CE
	.byte	$CE
	.byte	$D0
	.byte	$81
	.byte	$81
	.byte	$D9
	.byte	$DC
	.byte	$81
	.byte	$01
	.byte	$04
	.byte	$94
	.byte	$81
	.byte	$95
	.byte	$95
	.byte	$81
	.byte	$01
	.byte	$03
	.byte	$C8
	.byte	$81
	.byte	$01
	.byte	$02
	.byte	$97
	.byte	$81
	.byte	$F1
	.byte	$01
	.byte	$03
	.byte	$81
	.byte	$97
	.byte	$81
	.byte	$81
	.byte	$D1
	.byte	$B4
	.byte	$81
	.byte	$01
	.byte	$05
	.byte	$93
	.byte	$8A
	.byte	$81
	.byte	$8E
	.byte	$B4
	.byte	$81
	.byte	$8F
	.byte	$81
	.byte	$01
	.byte	$02
	.byte	$CD
	.byte	$CE
	.byte	$01
	.byte	$02
	.byte	$97
	.byte	$81
	.byte	$F1
	.byte	$01
	.byte	$03
	.byte	$81
	.byte	$97
	.byte	$81
	.byte	$01
	.byte	$02
	.byte	$D0
	.byte	$81
	.byte	$01
	.byte	$05
	.byte	$8A
	.byte	$8A
	.byte	$89
	.byte	$8B
	.byte	$8C
	.byte	$8D
	.byte	$88
	.byte	$81
	.byte	$81
	.byte	$CD
	.byte	$81
	.byte	$87
	.byte	$85
	.byte	$81
	.byte	$97
	.byte	$81
	.byte	$F1
	.byte	$01
	.byte	$03
	.byte	$81
	.byte	$97
	.byte	$81
	.byte	$01
	.byte	$03
	.byte	$CE
	.byte	$01
	.byte	$03
	.byte	$D0
	.byte	$81
	.byte	$01
	.byte	$06
	.byte	$CD
	.byte	$CE
	.byte	$CE
	.byte	$81
	.byte	$81
	.byte	$86
	.byte	$84
	.byte	$81
	.byte	$97
	.byte	$81
	.byte	$F1
	.byte	$01
	.byte	$03
	.byte	$81
	.byte	$97
	.byte	$81
	.byte	$01
	.byte	$08
	.byte	$D0
	.byte	$CD
	.byte	$CE
	.byte	$01
	.byte	$02
	.byte	$D0
	.byte	$CD
	.byte	$81
	.byte	$01
	.byte	$07
	.byte	$97
	.byte	$81
	.byte	$F1
	.byte	$01
	.byte	$03
	.byte	$81
	.byte	$82
	.byte	$98
	.byte	$01
	.byte	$17
	.byte	$83
	.byte	$81
	.byte	$F1
	.byte	$01
	.byte	$03
	.byte	$81
	.byte	$01
	.byte	$1B
	.byte	$F1
	.byte	$01
	.byte	$A1
	.byte	$00
	.byte	$01
	.byte	$3E
	.byte	$00
	.byte	$01
	.byte	$00
_title_screen:
	.byte	$01
	.byte	$00
	.byte	$01
	.byte	$FE
	.byte	$00
	.byte	$01
	.byte	$29
	.byte	$53
	.byte	$6B
	.byte	$75
	.byte	$6C
	.byte	$6C
	.byte	$00
	.byte	$01
	.byte	$03
	.byte	$51
	.byte	$75
	.byte	$65
	.byte	$73
	.byte	$74
	.byte	$00
	.byte	$01
	.byte	$B3
	.byte	$50
	.byte	$72
	.byte	$65
	.byte	$73
	.byte	$73
	.byte	$00
	.byte	$53
	.byte	$74
	.byte	$61
	.byte	$72
	.byte	$74
	.byte	$00
	.byte	$01
	.byte	$FE
	.byte	$00
	.byte	$01
	.byte	$32
	.byte	$54
	.byte	$68
	.byte	$65
	.byte	$00
	.byte	$6F
	.byte	$6C
	.byte	$64
	.byte	$00
	.byte	$67
	.byte	$61
	.byte	$6D
	.byte	$65
	.byte	$00
	.byte	$6D
	.byte	$61
	.byte	$6B
	.byte	$65
	.byte	$72
	.byte	$00
	.byte	$01
	.byte	$33
	.byte	$40
	.byte	$32
	.byte	$30
	.byte	$32
	.byte	$32
	.byte	$00
	.byte	$01
	.byte	$8B
	.byte	$00
	.byte	$01
	.byte	$00
_black_level:
	.byte	$01
	.byte	$00
	.byte	$01
	.byte	$FE
	.byte	$00
	.byte	$01
	.byte	$FE
	.byte	$00
	.byte	$01
	.byte	$FE
	.byte	$00
	.byte	$01
	.byte	$FE
	.byte	$00
	.byte	$01
	.byte	$02
	.byte	$00
	.byte	$01
	.byte	$00
_pal_forest_bg:
	.byte	$0F
	.byte	$15
	.byte	$30
	.byte	$09
	.byte	$0F
	.byte	$29
	.byte	$1A
	.byte	$09
	.byte	$0F
	.byte	$08
	.byte	$17
	.byte	$27
	.byte	$0F
	.byte	$37
	.byte	$17
	.byte	$09
_pal_cemetery_bg:
	.byte	$0F
	.byte	$00
	.byte	$3D
	.byte	$08
	.byte	$0F
	.byte	$08
	.byte	$18
	.byte	$22
	.byte	$0F
	.byte	$00
	.byte	$18
	.byte	$10
	.byte	$0F
	.byte	$15
	.byte	$30
	.byte	$09
_pal_cemetery_spr:
	.byte	$0F
	.byte	$30
	.byte	$15
	.byte	$02
	.byte	$0F
	.byte	$00
	.byte	$0F
	.byte	$38
	.byte	$0F
	.byte	$17
	.byte	$06
	.byte	$07
	.byte	$0F
	.byte	$04
	.byte	$23
	.byte	$0C
_pal_altar_bg:
	.byte	$01
	.byte	$0F
	.byte	$00
	.byte	$22
	.byte	$01
	.byte	$11
	.byte	$3D
	.byte	$22
	.byte	$01
	.byte	$0F
	.byte	$37
	.byte	$28
	.byte	$01
	.byte	$0F
	.byte	$07
	.byte	$11
_pal_altar_spr:
	.byte	$10
	.byte	$30
	.byte	$15
	.byte	$11
	.byte	$10
	.byte	$05
	.byte	$0C
	.byte	$27
	.byte	$10
	.byte	$17
	.byte	$08
	.byte	$36
	.byte	$10
	.byte	$09
	.byte	$19
	.byte	$29
_pal_altar_lightning:
	.byte	$10
	.byte	$30
	.byte	$15
	.byte	$11
	.byte	$10
	.byte	$05
	.byte	$0C
	.byte	$27
	.byte	$10
	.byte	$21
	.byte	$31
	.byte	$30
	.byte	$10
	.byte	$09
	.byte	$19
	.byte	$29
_angelic_idle1:
	.byte	$00
	.byte	$00
	.byte	$D3
	.byte	$03
	.byte	$07
	.byte	$00
	.byte	$D3
	.byte	$43
	.byte	$00
	.byte	$08
	.byte	$C2
	.byte	$03
	.byte	$08
	.byte	$08
	.byte	$C3
	.byte	$03
	.byte	$00
	.byte	$10
	.byte	$C0
	.byte	$03
	.byte	$08
	.byte	$10
	.byte	$C1
	.byte	$03
	.byte	$80
_angelic_idle2:
	.byte	$00
	.byte	$01
	.byte	$D3
	.byte	$03
	.byte	$07
	.byte	$01
	.byte	$D3
	.byte	$43
	.byte	$00
	.byte	$09
	.byte	$C2
	.byte	$03
	.byte	$08
	.byte	$09
	.byte	$C3
	.byte	$03
	.byte	$00
	.byte	$11
	.byte	$C0
	.byte	$03
	.byte	$08
	.byte	$11
	.byte	$C1
	.byte	$03
	.byte	$80
_angelic_idle3:
	.byte	$00
	.byte	$02
	.byte	$D3
	.byte	$03
	.byte	$07
	.byte	$02
	.byte	$D3
	.byte	$43
	.byte	$00
	.byte	$0A
	.byte	$C2
	.byte	$03
	.byte	$08
	.byte	$0A
	.byte	$C3
	.byte	$03
	.byte	$00
	.byte	$12
	.byte	$C0
	.byte	$03
	.byte	$08
	.byte	$12
	.byte	$C1
	.byte	$03
	.byte	$80
_angelic_face:
	.byte	$FE
	.byte	$0C
	.byte	$D2
	.byte	$03
	.byte	$06
	.byte	$00
	.byte	$D0
	.byte	$03
	.byte	$0E
	.byte	$00
	.byte	$D1
	.byte	$03
	.byte	$06
	.byte	$08
	.byte	$E0
	.byte	$03
	.byte	$0E
	.byte	$08
	.byte	$E1
	.byte	$03
	.byte	$16
	.byte	$00
	.byte	$E3
	.byte	$03
	.byte	$06
	.byte	$10
	.byte	$F0
	.byte	$03
	.byte	$0E
	.byte	$12
	.byte	$F1
	.byte	$03
	.byte	$0E
	.byte	$10
	.byte	$F2
	.byte	$03
	.byte	$16
	.byte	$0F
	.byte	$F3
	.byte	$03
	.byte	$16
	.byte	$08
	.byte	$E2
	.byte	$03
	.byte	$80
_angelic_animation_index:
	.byte	$00
	.byte	$06
_angelic_animation:
	.addr	_angelic_idle1
	.addr	_angelic_idle2
	.addr	_angelic_idle3
	.addr	_angelic_idle3
	.addr	_angelic_idle2
	.addr	_angelic_idle1
_crow_left_idle:
	.byte	$00
	.byte	$00
	.byte	$22
	.byte	$41
	.byte	$00
	.byte	$05
	.byte	$25
	.byte	$01
	.byte	$08
	.byte	$05
	.byte	$26
	.byte	$01
	.byte	$80
_crow_right_idle:
	.byte	$08
	.byte	$01
	.byte	$22
	.byte	$01
	.byte	$08
	.byte	$06
	.byte	$25
	.byte	$41
	.byte	$00
	.byte	$06
	.byte	$26
	.byte	$41
	.byte	$80
_crow_left_skwak:
	.byte	$FE
	.byte	$01
	.byte	$21
	.byte	$01
	.byte	$00
	.byte	$05
	.byte	$23
	.byte	$01
	.byte	$08
	.byte	$05
	.byte	$24
	.byte	$01
	.byte	$80
_crow_right_skwak:
	.byte	$0A
	.byte	$02
	.byte	$21
	.byte	$41
	.byte	$08
	.byte	$06
	.byte	$23
	.byte	$41
	.byte	$00
	.byte	$06
	.byte	$24
	.byte	$41
	.byte	$80
_crow_left_fly1:
	.byte	$00
	.byte	$06
	.byte	$27
	.byte	$01
	.byte	$07
	.byte	$06
	.byte	$28
	.byte	$01
	.byte	$06
	.byte	$FF
	.byte	$29
	.byte	$01
	.byte	$FD
	.byte	$02
	.byte	$22
	.byte	$41
	.byte	$00
	.byte	$00
	.byte	$29
	.byte	$41
	.byte	$80
_crow_right_fly1:
	.byte	$02
	.byte	$FF
	.byte	$29
	.byte	$41
	.byte	$08
	.byte	$06
	.byte	$27
	.byte	$41
	.byte	$01
	.byte	$06
	.byte	$28
	.byte	$41
	.byte	$0B
	.byte	$02
	.byte	$22
	.byte	$01
	.byte	$08
	.byte	$00
	.byte	$29
	.byte	$01
	.byte	$80
_crow_left_fly2:
	.byte	$00
	.byte	$06
	.byte	$27
	.byte	$01
	.byte	$08
	.byte	$06
	.byte	$28
	.byte	$01
	.byte	$FD
	.byte	$01
	.byte	$22
	.byte	$41
	.byte	$06
	.byte	$07
	.byte	$29
	.byte	$81
	.byte	$02
	.byte	$05
	.byte	$29
	.byte	$C1
	.byte	$80
_crow_right_fly2:
	.byte	$08
	.byte	$06
	.byte	$27
	.byte	$41
	.byte	$00
	.byte	$06
	.byte	$28
	.byte	$41
	.byte	$0B
	.byte	$01
	.byte	$22
	.byte	$01
	.byte	$02
	.byte	$07
	.byte	$29
	.byte	$C1
	.byte	$06
	.byte	$05
	.byte	$29
	.byte	$81
	.byte	$80
_crow_animation_index:
	.byte	$00
	.byte	$02
	.byte	$04
	.byte	$01
	.byte	$06
	.byte	$01
_crow_animation:
	.addr	_crow_left_fly1
	.addr	_crow_left_fly2
	.addr	_crow_right_fly1
	.addr	_crow_right_fly2
	.addr	_crow_left_skwak
	.addr	_crow_right_skwak
	.addr	_crow_left_idle
	.addr	_crow_right_idle
_HorizontalPaddleSpr:
	.byte	$00
	.byte	$00
	.byte	$05
	.byte	$00
	.byte	$08
	.byte	$00
	.byte	$05
	.byte	$00
	.byte	$10
	.byte	$00
	.byte	$05
	.byte	$00
	.byte	$18
	.byte	$00
	.byte	$05
	.byte	$00
	.byte	$80
_VerticalPaddleSpr:
	.byte	$00
	.byte	$00
	.byte	$06
	.byte	$00
	.byte	$00
	.byte	$08
	.byte	$06
	.byte	$00
	.byte	$00
	.byte	$10
	.byte	$06
	.byte	$00
	.byte	$00
	.byte	$18
	.byte	$06
	.byte	$00
	.byte	$80
_tree:
	.byte	$F6
	.byte	$DF
	.byte	$0C
	.byte	$02
	.byte	$F6
	.byte	$E7
	.byte	$1C
	.byte	$02
	.byte	$EE
	.byte	$E7
	.byte	$1B
	.byte	$02
	.byte	$E6
	.byte	$E7
	.byte	$1A
	.byte	$02
	.byte	$0E
	.byte	$E7
	.byte	$1F
	.byte	$02
	.byte	$F6
	.byte	$EF
	.byte	$2C
	.byte	$02
	.byte	$FE
	.byte	$EF
	.byte	$2D
	.byte	$02
	.byte	$06
	.byte	$EF
	.byte	$2E
	.byte	$02
	.byte	$0E
	.byte	$EF
	.byte	$2F
	.byte	$02
	.byte	$F6
	.byte	$F7
	.byte	$3C
	.byte	$02
	.byte	$FE
	.byte	$F7
	.byte	$3D
	.byte	$02
	.byte	$06
	.byte	$F7
	.byte	$3E
	.byte	$02
	.byte	$F6
	.byte	$FF
	.byte	$4C
	.byte	$02
	.byte	$FE
	.byte	$FF
	.byte	$4D
	.byte	$02
	.byte	$06
	.byte	$FF
	.byte	$4E
	.byte	$02
	.byte	$0E
	.byte	$FF
	.byte	$4F
	.byte	$02
	.byte	$F6
	.byte	$07
	.byte	$5C
	.byte	$02
	.byte	$FE
	.byte	$07
	.byte	$5D
	.byte	$02
	.byte	$06
	.byte	$07
	.byte	$3C
	.byte	$42
	.byte	$FE
	.byte	$E7
	.byte	$1D
	.byte	$02
	.byte	$EE
	.byte	$0F
	.byte	$6B
	.byte	$02
	.byte	$F6
	.byte	$0F
	.byte	$6C
	.byte	$02
	.byte	$FE
	.byte	$0F
	.byte	$6D
	.byte	$02
	.byte	$06
	.byte	$0F
	.byte	$6E
	.byte	$02
	.byte	$80
_door0:
	.byte	$00
	.byte	$00
	.byte	$30
	.byte	$41
	.byte	$00
	.byte	$08
	.byte	$40
	.byte	$41
	.byte	$00
	.byte	$10
	.byte	$50
	.byte	$41
	.byte	$08
	.byte	$00
	.byte	$30
	.byte	$01
	.byte	$08
	.byte	$08
	.byte	$40
	.byte	$01
	.byte	$08
	.byte	$10
	.byte	$50
	.byte	$01
	.byte	$80
_door1:
	.byte	$00
	.byte	$00
	.byte	$30
	.byte	$41
	.byte	$00
	.byte	$08
	.byte	$40
	.byte	$41
	.byte	$00
	.byte	$10
	.byte	$50
	.byte	$41
	.byte	$08
	.byte	$00
	.byte	$30
	.byte	$01
	.byte	$08
	.byte	$08
	.byte	$40
	.byte	$01
	.byte	$08
	.byte	$10
	.byte	$50
	.byte	$01
	.byte	$08
	.byte	$18
	.byte	$46
	.byte	$01
	.byte	$00
	.byte	$18
	.byte	$46
	.byte	$41
	.byte	$80
_door2:
	.byte	$00
	.byte	$00
	.byte	$31
	.byte	$41
	.byte	$00
	.byte	$08
	.byte	$41
	.byte	$41
	.byte	$00
	.byte	$10
	.byte	$51
	.byte	$41
	.byte	$00
	.byte	$18
	.byte	$61
	.byte	$41
	.byte	$08
	.byte	$00
	.byte	$31
	.byte	$01
	.byte	$08
	.byte	$08
	.byte	$41
	.byte	$01
	.byte	$08
	.byte	$10
	.byte	$51
	.byte	$01
	.byte	$08
	.byte	$18
	.byte	$61
	.byte	$01
	.byte	$80
_door3:
	.byte	$00
	.byte	$00
	.byte	$32
	.byte	$41
	.byte	$00
	.byte	$08
	.byte	$42
	.byte	$41
	.byte	$00
	.byte	$10
	.byte	$52
	.byte	$41
	.byte	$00
	.byte	$18
	.byte	$62
	.byte	$41
	.byte	$08
	.byte	$00
	.byte	$32
	.byte	$01
	.byte	$08
	.byte	$08
	.byte	$42
	.byte	$01
	.byte	$08
	.byte	$10
	.byte	$52
	.byte	$01
	.byte	$08
	.byte	$18
	.byte	$62
	.byte	$01
	.byte	$80
_door4:
	.byte	$00
	.byte	$00
	.byte	$33
	.byte	$41
	.byte	$00
	.byte	$08
	.byte	$43
	.byte	$41
	.byte	$00
	.byte	$10
	.byte	$43
	.byte	$41
	.byte	$00
	.byte	$18
	.byte	$53
	.byte	$41
	.byte	$08
	.byte	$00
	.byte	$33
	.byte	$01
	.byte	$08
	.byte	$08
	.byte	$43
	.byte	$01
	.byte	$08
	.byte	$10
	.byte	$43
	.byte	$01
	.byte	$08
	.byte	$18
	.byte	$53
	.byte	$01
	.byte	$80
_torch_flicker1:
	.byte	$00
	.byte	$00
	.byte	$12
	.byte	$03
	.byte	$00
	.byte	$08
	.byte	$14
	.byte	$01
	.byte	$80
_torch_flicker2:
	.byte	$00
	.byte	$00
	.byte	$13
	.byte	$03
	.byte	$00
	.byte	$08
	.byte	$14
	.byte	$01
	.byte	$80
_torch_flicker3:
	.byte	$00
	.byte	$00
	.byte	$12
	.byte	$43
	.byte	$00
	.byte	$08
	.byte	$14
	.byte	$01
	.byte	$80
_torch_flicker4:
	.byte	$00
	.byte	$00
	.byte	$16
	.byte	$03
	.byte	$00
	.byte	$08
	.byte	$14
	.byte	$01
	.byte	$80
_torch_animation_index:
	.byte	$00
	.byte	$04
_torch_animation:
	.addr	_torch_flicker1
	.addr	_torch_flicker2
	.addr	_torch_flicker3
	.addr	_torch_flicker4
_door_animation_index:
	.byte	$00
	.byte	$01
	.byte	$01
	.byte	$03
	.byte	$04
	.byte	$01
_door_animation:
	.addr	_door0
	.addr	_door1
	.addr	_door2
	.addr	_door3
	.addr	_door4
_hero_head_up:
	.byte	$05
	.byte	$03
	.byte	$35
	.byte	$02
	.byte	$00
	.byte	$00
	.byte	$34
	.byte	$02
	.byte	$00
	.byte	$08
	.byte	$44
	.byte	$02
	.byte	$00
	.byte	$10
	.byte	$54
	.byte	$02
	.byte	$08
	.byte	$08
	.byte	$45
	.byte	$02
	.byte	$08
	.byte	$10
	.byte	$55
	.byte	$02
	.byte	$09
	.byte	$00
	.byte	$34
	.byte	$42
	.byte	$80
_hero_head_down:
	.byte	$05
	.byte	$04
	.byte	$36
	.byte	$02
	.byte	$00
	.byte	$00
	.byte	$34
	.byte	$02
	.byte	$00
	.byte	$08
	.byte	$44
	.byte	$02
	.byte	$00
	.byte	$10
	.byte	$54
	.byte	$02
	.byte	$08
	.byte	$08
	.byte	$45
	.byte	$02
	.byte	$08
	.byte	$10
	.byte	$55
	.byte	$02
	.byte	$09
	.byte	$00
	.byte	$34
	.byte	$42
	.byte	$80
_skull_face:
	.byte	$08
	.byte	$08
	.byte	$C4
	.byte	$00
	.byte	$10
	.byte	$08
	.byte	$C5
	.byte	$00
	.byte	$08
	.byte	$10
	.byte	$D4
	.byte	$00
	.byte	$10
	.byte	$10
	.byte	$D5
	.byte	$00
	.byte	$80
_lightning_dead:
	.byte	$00
	.byte	$00
	.byte	$FF
	.byte	$00
	.byte	$80
_lightning_0_data:
	.byte	$F1
	.byte	$DE
	.byte	$C0
	.byte	$02
	.byte	$F9
	.byte	$DE
	.byte	$C1
	.byte	$02
	.byte	$01
	.byte	$DE
	.byte	$C2
	.byte	$02
	.byte	$09
	.byte	$DE
	.byte	$C3
	.byte	$02
	.byte	$01
	.byte	$D6
	.byte	$C4
	.byte	$02
	.byte	$09
	.byte	$D6
	.byte	$C5
	.byte	$02
	.byte	$80
_lightning_1_data:
	.byte	$EF
	.byte	$D8
	.byte	$C6
	.byte	$02
	.byte	$F7
	.byte	$D8
	.byte	$C7
	.byte	$02
	.byte	$FF
	.byte	$D8
	.byte	$C8
	.byte	$02
	.byte	$07
	.byte	$D8
	.byte	$C6
	.byte	$42
	.byte	$F7
	.byte	$E0
	.byte	$C9
	.byte	$02
	.byte	$F1
	.byte	$E2
	.byte	$C5
	.byte	$82
	.byte	$05
	.byte	$DD
	.byte	$C5
	.byte	$02
	.byte	$FF
	.byte	$E0
	.byte	$CA
	.byte	$02
	.byte	$80
_lightning_2_data:
	.byte	$F1
	.byte	$D8
	.byte	$CB
	.byte	$02
	.byte	$F9
	.byte	$D8
	.byte	$CC
	.byte	$02
	.byte	$01
	.byte	$D8
	.byte	$CD
	.byte	$02
	.byte	$09
	.byte	$DB
	.byte	$C6
	.byte	$42
	.byte	$F1
	.byte	$E0
	.byte	$CE
	.byte	$02
	.byte	$F9
	.byte	$E0
	.byte	$CF
	.byte	$02
	.byte	$F9
	.byte	$E8
	.byte	$D0
	.byte	$02
	.byte	$FA
	.byte	$EF
	.byte	$D1
	.byte	$02
	.byte	$F1
	.byte	$F0
	.byte	$D2
	.byte	$02
	.byte	$F5
	.byte	$F4
	.byte	$D1
	.byte	$42
	.byte	$FD
	.byte	$00
	.byte	$D3
	.byte	$02
	.byte	$FF
	.byte	$0A
	.byte	$D3
	.byte	$C2
	.byte	$F8
	.byte	$11
	.byte	$D2
	.byte	$02
	.byte	$04
	.byte	$11
	.byte	$D2
	.byte	$42
	.byte	$FD
	.byte	$18
	.byte	$D0
	.byte	$42
	.byte	$01
	.byte	$E0
	.byte	$C8
	.byte	$82
	.byte	$80
_lightning_3_data:
	.byte	$EF
	.byte	$D8
	.byte	$C6
	.byte	$02
	.byte	$F7
	.byte	$D8
	.byte	$C7
	.byte	$02
	.byte	$FF
	.byte	$D8
	.byte	$C8
	.byte	$02
	.byte	$07
	.byte	$D8
	.byte	$C6
	.byte	$42
	.byte	$F7
	.byte	$E0
	.byte	$C9
	.byte	$02
	.byte	$F1
	.byte	$E2
	.byte	$C5
	.byte	$82
	.byte	$05
	.byte	$DD
	.byte	$C5
	.byte	$02
	.byte	$FF
	.byte	$E0
	.byte	$CA
	.byte	$02
	.byte	$FC
	.byte	$E4
	.byte	$D4
	.byte	$02
	.byte	$FC
	.byte	$EC
	.byte	$D4
	.byte	$02
	.byte	$FC
	.byte	$F4
	.byte	$D4
	.byte	$02
	.byte	$FC
	.byte	$FC
	.byte	$D4
	.byte	$02
	.byte	$FC
	.byte	$04
	.byte	$D4
	.byte	$02
	.byte	$FC
	.byte	$0C
	.byte	$D4
	.byte	$02
	.byte	$FC
	.byte	$14
	.byte	$D4
	.byte	$02
	.byte	$EE
	.byte	$1A
	.byte	$C0
	.byte	$42
	.byte	$F6
	.byte	$17
	.byte	$CE
	.byte	$C2
	.byte	$04
	.byte	$18
	.byte	$C6
	.byte	$82
	.byte	$0A
	.byte	$17
	.byte	$C5
	.byte	$42
	.byte	$FC
	.byte	$18
	.byte	$D4
	.byte	$02
	.byte	$80
_lightning_4_data:
	.byte	$FE
	.byte	$E0
	.byte	$D5
	.byte	$02
	.byte	$FC
	.byte	$F0
	.byte	$D6
	.byte	$02
	.byte	$FC
	.byte	$F8
	.byte	$D9
	.byte	$02
	.byte	$F3
	.byte	$FE
	.byte	$D1
	.byte	$42
	.byte	$FC
	.byte	$00
	.byte	$D8
	.byte	$02
	.byte	$00
	.byte	$F0
	.byte	$DA
	.byte	$02
	.byte	$05
	.byte	$F7
	.byte	$D2
	.byte	$42
	.byte	$FC
	.byte	$08
	.byte	$DB
	.byte	$42
	.byte	$FC
	.byte	$10
	.byte	$DB
	.byte	$C2
	.byte	$F4
	.byte	$10
	.byte	$DC
	.byte	$02
	.byte	$F4
	.byte	$08
	.byte	$DD
	.byte	$02
	.byte	$F4
	.byte	$18
	.byte	$DE
	.byte	$02
	.byte	$FC
	.byte	$18
	.byte	$DF
	.byte	$02
	.byte	$02
	.byte	$19
	.byte	$C5
	.byte	$C2
	.byte	$02
	.byte	$0C
	.byte	$D7
	.byte	$02
	.byte	$02
	.byte	$0F
	.byte	$CA
	.byte	$82
	.byte	$FE
	.byte	$E8
	.byte	$D6
	.byte	$02
	.byte	$80
_lightning_5_data:
	.byte	$FB
	.byte	$E0
	.byte	$D5
	.byte	$42
	.byte	$FD
	.byte	$F0
	.byte	$D6
	.byte	$42
	.byte	$FD
	.byte	$F8
	.byte	$D9
	.byte	$42
	.byte	$04
	.byte	$ED
	.byte	$D1
	.byte	$82
	.byte	$FD
	.byte	$00
	.byte	$D8
	.byte	$42
	.byte	$F8
	.byte	$F4
	.byte	$DA
	.byte	$42
	.byte	$F4
	.byte	$F7
	.byte	$D2
	.byte	$02
	.byte	$FD
	.byte	$08
	.byte	$DB
	.byte	$02
	.byte	$FD
	.byte	$10
	.byte	$DB
	.byte	$82
	.byte	$00
	.byte	$10
	.byte	$D6
	.byte	$42
	.byte	$05
	.byte	$08
	.byte	$DD
	.byte	$42
	.byte	$06
	.byte	$18
	.byte	$C7
	.byte	$C2
	.byte	$0D
	.byte	$14
	.byte	$DF
	.byte	$82
	.byte	$E9
	.byte	$20
	.byte	$C5
	.byte	$82
	.byte	$F7
	.byte	$0C
	.byte	$D7
	.byte	$42
	.byte	$EF
	.byte	$1B
	.byte	$C1
	.byte	$02
	.byte	$FE
	.byte	$18
	.byte	$DB
	.byte	$C2
	.byte	$F6
	.byte	$18
	.byte	$E0
	.byte	$02
	.byte	$F0
	.byte	$13
	.byte	$D2
	.byte	$02
	.byte	$FB
	.byte	$E8
	.byte	$D6
	.byte	$42
	.byte	$80
_lightning_6_data:
	.byte	$FA
	.byte	$F4
	.byte	$E2
	.byte	$02
	.byte	$FC
	.byte	$E1
	.byte	$D5
	.byte	$02
	.byte	$F9
	.byte	$E5
	.byte	$E1
	.byte	$02
	.byte	$FA
	.byte	$EC
	.byte	$D0
	.byte	$02
	.byte	$01
	.byte	$FB
	.byte	$CC
	.byte	$02
	.byte	$F4
	.byte	$F9
	.byte	$D2
	.byte	$02
	.byte	$04
	.byte	$00
	.byte	$D5
	.byte	$02
	.byte	$03
	.byte	$08
	.byte	$D0
	.byte	$02
	.byte	$FA
	.byte	$10
	.byte	$E3
	.byte	$02
	.byte	$02
	.byte	$10
	.byte	$E4
	.byte	$02
	.byte	$FA
	.byte	$18
	.byte	$E5
	.byte	$02
	.byte	$02
	.byte	$18
	.byte	$E6
	.byte	$02
	.byte	$F2
	.byte	$10
	.byte	$E7
	.byte	$02
	.byte	$F2
	.byte	$18
	.byte	$E8
	.byte	$02
	.byte	$E8
	.byte	$18
	.byte	$EA
	.byte	$02
	.byte	$EA
	.byte	$10
	.byte	$E9
	.byte	$02
	.byte	$EE
	.byte	$1D
	.byte	$EB
	.byte	$02
	.byte	$02
	.byte	$1F
	.byte	$EB
	.byte	$02
	.byte	$07
	.byte	$18
	.byte	$E8
	.byte	$42
	.byte	$0F
	.byte	$19
	.byte	$D1
	.byte	$02
	.byte	$12
	.byte	$1B
	.byte	$C6
	.byte	$42
	.byte	$12
	.byte	$0F
	.byte	$CC
	.byte	$02
	.byte	$1A
	.byte	$15
	.byte	$D2
	.byte	$42
	.byte	$0A
	.byte	$12
	.byte	$CB
	.byte	$82
	.byte	$80
_lightning_7_data:
	.byte	$FB
	.byte	$E8
	.byte	$EC
	.byte	$02
	.byte	$00
	.byte	$E3
	.byte	$D2
	.byte	$C2
	.byte	$F3
	.byte	$E7
	.byte	$ED
	.byte	$02
	.byte	$F1
	.byte	$EF
	.byte	$D6
	.byte	$02
	.byte	$F2
	.byte	$F5
	.byte	$E4
	.byte	$C2
	.byte	$F5
	.byte	$F6
	.byte	$DE
	.byte	$02
	.byte	$FC
	.byte	$F7
	.byte	$E3
	.byte	$82
	.byte	$03
	.byte	$F3
	.byte	$E3
	.byte	$02
	.byte	$06
	.byte	$F6
	.byte	$DE
	.byte	$02
	.byte	$0D
	.byte	$F7
	.byte	$EC
	.byte	$82
	.byte	$06
	.byte	$00
	.byte	$EE
	.byte	$C2
	.byte	$08
	.byte	$0E
	.byte	$E4
	.byte	$02
	.byte	$FD
	.byte	$18
	.byte	$F0
	.byte	$02
	.byte	$12
	.byte	$0E
	.byte	$DD
	.byte	$C2
	.byte	$0C
	.byte	$FB
	.byte	$EA
	.byte	$42
	.byte	$06
	.byte	$08
	.byte	$EF
	.byte	$42
	.byte	$02
	.byte	$0F
	.byte	$ED
	.byte	$02
	.byte	$FE
	.byte	$10
	.byte	$C8
	.byte	$02
	.byte	$F6
	.byte	$11
	.byte	$EF
	.byte	$02
	.byte	$F1
	.byte	$0B
	.byte	$EE
	.byte	$42
	.byte	$EE
	.byte	$06
	.byte	$EC
	.byte	$82
	.byte	$F0
	.byte	$13
	.byte	$EE
	.byte	$42
	.byte	$EC
	.byte	$0D
	.byte	$DD
	.byte	$02
	.byte	$F8
	.byte	$19
	.byte	$DB
	.byte	$82
	.byte	$FA
	.byte	$0C
	.byte	$E2
	.byte	$82
	.byte	$ED
	.byte	$13
	.byte	$D1
	.byte	$02
	.byte	$EA
	.byte	$0C
	.byte	$D3
	.byte	$42
	.byte	$ED
	.byte	$1C
	.byte	$D2
	.byte	$02
	.byte	$00
	.byte	$18
	.byte	$C8
	.byte	$02
	.byte	$08
	.byte	$18
	.byte	$CD
	.byte	$02
	.byte	$0E
	.byte	$0F
	.byte	$EE
	.byte	$02
	.byte	$80
_lightning_8_data:
	.byte	$FD
	.byte	$18
	.byte	$F1
	.byte	$02
	.byte	$FA
	.byte	$10
	.byte	$ED
	.byte	$42
	.byte	$FD
	.byte	$08
	.byte	$F2
	.byte	$02
	.byte	$05
	.byte	$08
	.byte	$F3
	.byte	$02
	.byte	$F5
	.byte	$0B
	.byte	$F2
	.byte	$02
	.byte	$ED
	.byte	$10
	.byte	$F4
	.byte	$02
	.byte	$13
	.byte	$14
	.byte	$D3
	.byte	$C2
	.byte	$E5
	.byte	$18
	.byte	$CE
	.byte	$02
	.byte	$F6
	.byte	$19
	.byte	$F5
	.byte	$02
	.byte	$F2
	.byte	$13
	.byte	$C6
	.byte	$02
	.byte	$ED
	.byte	$18
	.byte	$F6
	.byte	$02
	.byte	$E6
	.byte	$0C
	.byte	$CB
	.byte	$02
	.byte	$F6
	.byte	$0C
	.byte	$DE
	.byte	$82
	.byte	$02
	.byte	$17
	.byte	$E4
	.byte	$82
	.byte	$08
	.byte	$15
	.byte	$E8
	.byte	$02
	.byte	$F1
	.byte	$1F
	.byte	$EB
	.byte	$02
	.byte	$0A
	.byte	$0E
	.byte	$F4
	.byte	$42
	.byte	$03
	.byte	$1F
	.byte	$EB
	.byte	$42
	.byte	$09
	.byte	$1B
	.byte	$C6
	.byte	$42
	.byte	$0A
	.byte	$01
	.byte	$EA
	.byte	$42
	.byte	$0B
	.byte	$FA
	.byte	$EA
	.byte	$02
	.byte	$04
	.byte	$F7
	.byte	$F2
	.byte	$02
	.byte	$FF
	.byte	$FB
	.byte	$EB
	.byte	$42
	.byte	$F8
	.byte	$00
	.byte	$C0
	.byte	$02
	.byte	$F5
	.byte	$FB
	.byte	$D4
	.byte	$02
	.byte	$F2
	.byte	$F9
	.byte	$F2
	.byte	$82
	.byte	$F2
	.byte	$F2
	.byte	$EE
	.byte	$02
	.byte	$F6
	.byte	$EA
	.byte	$E3
	.byte	$02
	.byte	$FE
	.byte	$EE
	.byte	$E3
	.byte	$C2
	.byte	$FF
	.byte	$E8
	.byte	$C1
	.byte	$82
	.byte	$80
_lightning_9_data:
	.byte	$FD
	.byte	$17
	.byte	$F7
	.byte	$02
	.byte	$03
	.byte	$11
	.byte	$F5
	.byte	$C2
	.byte	$01
	.byte	$0B
	.byte	$DA
	.byte	$42
	.byte	$FC
	.byte	$0F
	.byte	$D1
	.byte	$02
	.byte	$F8
	.byte	$06
	.byte	$E2
	.byte	$82
	.byte	$F2
	.byte	$08
	.byte	$F3
	.byte	$02
	.byte	$FD
	.byte	$03
	.byte	$F2
	.byte	$02
	.byte	$E8
	.byte	$13
	.byte	$D5
	.byte	$42
	.byte	$EF
	.byte	$17
	.byte	$EB
	.byte	$02
	.byte	$EB
	.byte	$1B
	.byte	$C6
	.byte	$02
	.byte	$F7
	.byte	$1F
	.byte	$EB
	.byte	$02
	.byte	$04
	.byte	$1F
	.byte	$EB
	.byte	$42
	.byte	$EA
	.byte	$0B
	.byte	$F4
	.byte	$02
	.byte	$15
	.byte	$13
	.byte	$F5
	.byte	$42
	.byte	$08
	.byte	$19
	.byte	$EA
	.byte	$02
	.byte	$0F
	.byte	$1D
	.byte	$F3
	.byte	$02
	.byte	$0A
	.byte	$08
	.byte	$F3
	.byte	$42
	.byte	$06
	.byte	$03
	.byte	$DA
	.byte	$42
	.byte	$07
	.byte	$FB
	.byte	$F5
	.byte	$02
	.byte	$01
	.byte	$F9
	.byte	$C6
	.byte	$42
	.byte	$FF
	.byte	$ED
	.byte	$EE
	.byte	$02
	.byte	$F6
	.byte	$1A
	.byte	$C6
	.byte	$42
	.byte	$F9
	.byte	$F3
	.byte	$DA
	.byte	$42
	.byte	$FA
	.byte	$FA
	.byte	$D3
	.byte	$C2
	.byte	$FD
	.byte	$E6
	.byte	$DD
	.byte	$02
	.byte	$FB
	.byte	$E3
	.byte	$F8
	.byte	$02
	.byte	$80
_lightning_10_data:
	.byte	$03
	.byte	$11
	.byte	$F5
	.byte	$C2
	.byte	$01
	.byte	$0B
	.byte	$DA
	.byte	$42
	.byte	$F8
	.byte	$06
	.byte	$F9
	.byte	$82
	.byte	$F0
	.byte	$0B
	.byte	$F3
	.byte	$02
	.byte	$05
	.byte	$05
	.byte	$EB
	.byte	$02
	.byte	$EF
	.byte	$17
	.byte	$EB
	.byte	$02
	.byte	$E7
	.byte	$1B
	.byte	$C6
	.byte	$02
	.byte	$F7
	.byte	$1F
	.byte	$EB
	.byte	$02
	.byte	$04
	.byte	$1F
	.byte	$EB
	.byte	$42
	.byte	$E5
	.byte	$10
	.byte	$DA
	.byte	$42
	.byte	$18
	.byte	$12
	.byte	$F5
	.byte	$42
	.byte	$12
	.byte	$1E
	.byte	$F3
	.byte	$02
	.byte	$0E
	.byte	$0B
	.byte	$F3
	.byte	$42
	.byte	$08
	.byte	$FE
	.byte	$DA
	.byte	$42
	.byte	$F6
	.byte	$1A
	.byte	$C6
	.byte	$42
	.byte	$FE
	.byte	$EE
	.byte	$DA
	.byte	$42
	.byte	$FD
	.byte	$F7
	.byte	$D3
	.byte	$C2
	.byte	$04
	.byte	$E7
	.byte	$DD
	.byte	$42
	.byte	$FD
	.byte	$E1
	.byte	$F8
	.byte	$02
	.byte	$07
	.byte	$F8
	.byte	$EB
	.byte	$02
	.byte	$0C
	.byte	$1A
	.byte	$C6
	.byte	$02
	.byte	$80
_lightning_11_data:
	.byte	$09
	.byte	$15
	.byte	$DA
	.byte	$42
	.byte	$F8
	.byte	$06
	.byte	$F9
	.byte	$82
	.byte	$EE
	.byte	$09
	.byte	$F3
	.byte	$02
	.byte	$05
	.byte	$05
	.byte	$EB
	.byte	$02
	.byte	$EF
	.byte	$10
	.byte	$D3
	.byte	$02
	.byte	$E3
	.byte	$1D
	.byte	$C6
	.byte	$02
	.byte	$F7
	.byte	$21
	.byte	$EB
	.byte	$02
	.byte	$04
	.byte	$21
	.byte	$EB
	.byte	$42
	.byte	$E1
	.byte	$0E
	.byte	$DA
	.byte	$42
	.byte	$1C
	.byte	$12
	.byte	$F5
	.byte	$42
	.byte	$16
	.byte	$20
	.byte	$F3
	.byte	$02
	.byte	$10
	.byte	$09
	.byte	$F3
	.byte	$42
	.byte	$0D
	.byte	$1F
	.byte	$C6
	.byte	$42
	.byte	$0C
	.byte	$1A
	.byte	$C6
	.byte	$02
	.byte	$80
_lightning_animation_index:
	.byte	$00
	.byte	$01
	.byte	$01
	.byte	$0D
	.byte	$00
	.byte	$01
_lightning_animation:
	.addr	_lightning_dead
	.addr	_lightning_0_data
	.addr	_lightning_1_data
	.addr	_lightning_2_data
	.addr	_lightning_3_data
	.addr	_lightning_4_data
	.addr	_lightning_5_data
	.addr	_lightning_6_data
	.addr	_lightning_7_data
	.addr	_lightning_8_data
	.addr	_lightning_8_data
	.addr	_lightning_9_data
	.addr	_lightning_10_data
	.addr	_lightning_11_data
_necromancer_idle:
	.byte	$00
	.byte	$00
	.byte	$70
	.byte	$01
	.byte	$08
	.byte	$00
	.byte	$71
	.byte	$01
	.byte	$00
	.byte	$08
	.byte	$72
	.byte	$01
	.byte	$08
	.byte	$08
	.byte	$73
	.byte	$01
	.byte	$00
	.byte	$10
	.byte	$74
	.byte	$01
	.byte	$08
	.byte	$10
	.byte	$75
	.byte	$01
	.byte	$0F
	.byte	$FA
	.byte	$65
	.byte	$01
	.byte	$03
	.byte	$FC
	.byte	$60
	.byte	$02
	.byte	$09
	.byte	$07
	.byte	$64
	.byte	$01
	.byte	$0D
	.byte	$04
	.byte	$56
	.byte	$82
	.byte	$08
	.byte	$10
	.byte	$77
	.byte	$01
	.byte	$0A
	.byte	$08
	.byte	$77
	.byte	$01
	.byte	$11
	.byte	$02
	.byte	$77
	.byte	$C1
	.byte	$80
_necromancer_raising1:
	.byte	$00
	.byte	$00
	.byte	$70
	.byte	$01
	.byte	$08
	.byte	$00
	.byte	$71
	.byte	$01
	.byte	$00
	.byte	$08
	.byte	$72
	.byte	$01
	.byte	$08
	.byte	$08
	.byte	$73
	.byte	$01
	.byte	$00
	.byte	$10
	.byte	$74
	.byte	$01
	.byte	$08
	.byte	$10
	.byte	$75
	.byte	$01
	.byte	$0E
	.byte	$F8
	.byte	$66
	.byte	$01
	.byte	$03
	.byte	$FC
	.byte	$60
	.byte	$02
	.byte	$09
	.byte	$06
	.byte	$64
	.byte	$01
	.byte	$0D
	.byte	$02
	.byte	$56
	.byte	$82
	.byte	$0A
	.byte	$05
	.byte	$77
	.byte	$01
	.byte	$09
	.byte	$0C
	.byte	$77
	.byte	$01
	.byte	$0A
	.byte	$00
	.byte	$77
	.byte	$01
	.byte	$01
	.byte	$08
	.byte	$64
	.byte	$41
	.byte	$FD
	.byte	$05
	.byte	$56
	.byte	$02
	.byte	$80
_necromancer_raising2:
	.byte	$00
	.byte	$00
	.byte	$70
	.byte	$01
	.byte	$08
	.byte	$00
	.byte	$71
	.byte	$01
	.byte	$00
	.byte	$08
	.byte	$72
	.byte	$01
	.byte	$08
	.byte	$08
	.byte	$73
	.byte	$01
	.byte	$00
	.byte	$10
	.byte	$74
	.byte	$01
	.byte	$08
	.byte	$10
	.byte	$75
	.byte	$01
	.byte	$0E
	.byte	$F5
	.byte	$66
	.byte	$01
	.byte	$03
	.byte	$FC
	.byte	$60
	.byte	$02
	.byte	$09
	.byte	$01
	.byte	$64
	.byte	$81
	.byte	$0E
	.byte	$FE
	.byte	$56
	.byte	$82
	.byte	$0A
	.byte	$05
	.byte	$77
	.byte	$01
	.byte	$09
	.byte	$0A
	.byte	$77
	.byte	$01
	.byte	$0A
	.byte	$FD
	.byte	$76
	.byte	$01
	.byte	$FF
	.byte	$07
	.byte	$64
	.byte	$41
	.byte	$FA
	.byte	$04
	.byte	$56
	.byte	$02
	.byte	$80
_necromancer_hit:
	.byte	$00
	.byte	$00
	.byte	$70
	.byte	$01
	.byte	$08
	.byte	$00
	.byte	$71
	.byte	$01
	.byte	$00
	.byte	$08
	.byte	$72
	.byte	$01
	.byte	$08
	.byte	$08
	.byte	$73
	.byte	$01
	.byte	$00
	.byte	$10
	.byte	$74
	.byte	$01
	.byte	$08
	.byte	$10
	.byte	$75
	.byte	$01
	.byte	$0E
	.byte	$FA
	.byte	$66
	.byte	$01
	.byte	$03
	.byte	$FC
	.byte	$60
	.byte	$02
	.byte	$09
	.byte	$07
	.byte	$64
	.byte	$01
	.byte	$0D
	.byte	$04
	.byte	$56
	.byte	$82
	.byte	$0F
	.byte	$10
	.byte	$77
	.byte	$C1
	.byte	$0A
	.byte	$08
	.byte	$77
	.byte	$01
	.byte	$11
	.byte	$02
	.byte	$76
	.byte	$C1
	.byte	$FF
	.byte	$07
	.byte	$64
	.byte	$41
	.byte	$FA
	.byte	$04
	.byte	$56
	.byte	$02
	.byte	$80
_necromancer_animation_index:
	.byte	$00
	.byte	$01
	.byte	$01
	.byte	$02
	.byte	$02
	.byte	$01
	.byte	$03
	.byte	$01
	.byte	$03
	.byte	$01
_necromancer_animation:
	.addr	_necromancer_idle
	.addr	_necromancer_raising1
	.addr	_necromancer_raising2
	.addr	_necromancer_hit
_skeleton_right_still:
	.byte	$01
	.byte	$00
	.byte	$DD
	.byte	$00
	.byte	$00
	.byte	$0C
	.byte	$D8
	.byte	$00
	.byte	$00
	.byte	$05
	.byte	$D9
	.byte	$00
	.byte	$08
	.byte	$04
	.byte	$DC
	.byte	$00
	.byte	$80
_skeleton_right_walk1:
	.byte	$01
	.byte	$FF
	.byte	$DD
	.byte	$00
	.byte	$00
	.byte	$0C
	.byte	$DA
	.byte	$00
	.byte	$00
	.byte	$04
	.byte	$D9
	.byte	$00
	.byte	$08
	.byte	$03
	.byte	$DC
	.byte	$00
	.byte	$80
_skeleton_right_walk2:
	.byte	$02
	.byte	$00
	.byte	$DD
	.byte	$00
	.byte	$00
	.byte	$0C
	.byte	$DB
	.byte	$00
	.byte	$01
	.byte	$05
	.byte	$D9
	.byte	$00
	.byte	$09
	.byte	$04
	.byte	$DC
	.byte	$00
	.byte	$80
_skeleton_right_walk3:
	.byte	$01
	.byte	$0C
	.byte	$DE
	.byte	$00
	.byte	$01
	.byte	$04
	.byte	$D9
	.byte	$00
	.byte	$09
	.byte	$02
	.byte	$DC
	.byte	$00
	.byte	$02
	.byte	$FF
	.byte	$DD
	.byte	$00
	.byte	$80
_skeleton_right_walk4:
	.byte	$01
	.byte	$0C
	.byte	$DF
	.byte	$00
	.byte	$01
	.byte	$05
	.byte	$D9
	.byte	$00
	.byte	$09
	.byte	$03
	.byte	$DC
	.byte	$00
	.byte	$02
	.byte	$00
	.byte	$DD
	.byte	$00
	.byte	$80
_skeleton_right_turn:
	.byte	$FF
	.byte	$00
	.byte	$DD
	.byte	$00
	.byte	$00
	.byte	$0C
	.byte	$D8
	.byte	$40
	.byte	$00
	.byte	$05
	.byte	$D9
	.byte	$40
	.byte	$F8
	.byte	$04
	.byte	$DC
	.byte	$40
	.byte	$80
_skeleton_left_still:
	.byte	$FF
	.byte	$00
	.byte	$DD
	.byte	$40
	.byte	$00
	.byte	$0C
	.byte	$D8
	.byte	$40
	.byte	$00
	.byte	$05
	.byte	$D9
	.byte	$40
	.byte	$F8
	.byte	$04
	.byte	$DC
	.byte	$40
	.byte	$80
_skeleton_left_walk1:
	.byte	$FF
	.byte	$FF
	.byte	$DD
	.byte	$40
	.byte	$00
	.byte	$0C
	.byte	$DA
	.byte	$40
	.byte	$00
	.byte	$04
	.byte	$D9
	.byte	$40
	.byte	$F8
	.byte	$03
	.byte	$DC
	.byte	$40
	.byte	$80
_skeleton_left_walk2:
	.byte	$FE
	.byte	$00
	.byte	$DD
	.byte	$40
	.byte	$00
	.byte	$0C
	.byte	$DB
	.byte	$40
	.byte	$FF
	.byte	$05
	.byte	$D9
	.byte	$40
	.byte	$F7
	.byte	$04
	.byte	$DC
	.byte	$40
	.byte	$80
_skeleton_left_walk3:
	.byte	$FF
	.byte	$0C
	.byte	$DE
	.byte	$40
	.byte	$FF
	.byte	$04
	.byte	$D9
	.byte	$40
	.byte	$F7
	.byte	$02
	.byte	$DC
	.byte	$40
	.byte	$FE
	.byte	$FF
	.byte	$DD
	.byte	$40
	.byte	$80
_skeleton_left_walk4:
	.byte	$00
	.byte	$0C
	.byte	$DF
	.byte	$40
	.byte	$00
	.byte	$05
	.byte	$D9
	.byte	$40
	.byte	$F8
	.byte	$03
	.byte	$DC
	.byte	$40
	.byte	$FF
	.byte	$00
	.byte	$DD
	.byte	$40
	.byte	$80
_skeleton_left_turn:
	.byte	$01
	.byte	$00
	.byte	$DD
	.byte	$40
	.byte	$00
	.byte	$0C
	.byte	$D8
	.byte	$00
	.byte	$00
	.byte	$05
	.byte	$D9
	.byte	$00
	.byte	$08
	.byte	$04
	.byte	$DC
	.byte	$00
	.byte	$80
_skeleton_dying_right1:
	.byte	$01
	.byte	$0C
	.byte	$DF
	.byte	$00
	.byte	$01
	.byte	$07
	.byte	$D9
	.byte	$00
	.byte	$09
	.byte	$04
	.byte	$DC
	.byte	$00
	.byte	$02
	.byte	$00
	.byte	$DD
	.byte	$00
	.byte	$80
_skeleton_dying_right2:
	.byte	$01
	.byte	$09
	.byte	$D9
	.byte	$00
	.byte	$01
	.byte	$0C
	.byte	$DF
	.byte	$00
	.byte	$09
	.byte	$06
	.byte	$DC
	.byte	$00
	.byte	$02
	.byte	$01
	.byte	$DD
	.byte	$00
	.byte	$80
_skeleton_dying_right3:
	.byte	$01
	.byte	$0B
	.byte	$D9
	.byte	$00
	.byte	$01
	.byte	$0C
	.byte	$DF
	.byte	$00
	.byte	$09
	.byte	$08
	.byte	$DC
	.byte	$00
	.byte	$02
	.byte	$03
	.byte	$DD
	.byte	$00
	.byte	$80
_skeleton_dying_right4:
	.byte	$00
	.byte	$0C
	.byte	$D9
	.byte	$00
	.byte	$01
	.byte	$0C
	.byte	$DF
	.byte	$00
	.byte	$09
	.byte	$0C
	.byte	$DC
	.byte	$00
	.byte	$02
	.byte	$07
	.byte	$DD
	.byte	$00
	.byte	$80
_skeleton_dying_right5:
	.byte	$FF
	.byte	$0C
	.byte	$D9
	.byte	$00
	.byte	$01
	.byte	$0C
	.byte	$DF
	.byte	$00
	.byte	$09
	.byte	$0C
	.byte	$DC
	.byte	$00
	.byte	$06
	.byte	$09
	.byte	$DD
	.byte	$C0
	.byte	$80
_skeleton_dying_right6:
	.byte	$FE
	.byte	$0C
	.byte	$D9
	.byte	$00
	.byte	$01
	.byte	$0C
	.byte	$DF
	.byte	$00
	.byte	$09
	.byte	$0C
	.byte	$DC
	.byte	$00
	.byte	$07
	.byte	$0C
	.byte	$DD
	.byte	$00
	.byte	$80
_skeleton_dying_right7:
	.byte	$FE
	.byte	$0C
	.byte	$D9
	.byte	$00
	.byte	$01
	.byte	$0C
	.byte	$DF
	.byte	$00
	.byte	$09
	.byte	$0C
	.byte	$DC
	.byte	$00
	.byte	$09
	.byte	$0C
	.byte	$DD
	.byte	$80
	.byte	$80
_skeleton_dying_left1:
	.byte	$01
	.byte	$0C
	.byte	$DF
	.byte	$40
	.byte	$01
	.byte	$07
	.byte	$D9
	.byte	$40
	.byte	$F9
	.byte	$04
	.byte	$DC
	.byte	$40
	.byte	$00
	.byte	$00
	.byte	$DD
	.byte	$40
	.byte	$80
_skeleton_dying_left2:
	.byte	$01
	.byte	$09
	.byte	$D9
	.byte	$40
	.byte	$01
	.byte	$0C
	.byte	$DF
	.byte	$40
	.byte	$F9
	.byte	$06
	.byte	$DC
	.byte	$40
	.byte	$00
	.byte	$01
	.byte	$DD
	.byte	$40
	.byte	$80
_skeleton_dying_left3:
	.byte	$01
	.byte	$0B
	.byte	$D9
	.byte	$40
	.byte	$01
	.byte	$0C
	.byte	$DF
	.byte	$40
	.byte	$F9
	.byte	$08
	.byte	$DC
	.byte	$40
	.byte	$00
	.byte	$03
	.byte	$DD
	.byte	$40
	.byte	$80
_skeleton_dying_left4:
	.byte	$02
	.byte	$0C
	.byte	$D9
	.byte	$40
	.byte	$01
	.byte	$0C
	.byte	$DF
	.byte	$40
	.byte	$F9
	.byte	$0C
	.byte	$DC
	.byte	$40
	.byte	$00
	.byte	$07
	.byte	$DD
	.byte	$40
	.byte	$80
_skeleton_dying_left5:
	.byte	$03
	.byte	$0C
	.byte	$D9
	.byte	$40
	.byte	$01
	.byte	$0C
	.byte	$DF
	.byte	$40
	.byte	$F9
	.byte	$0C
	.byte	$DC
	.byte	$40
	.byte	$FC
	.byte	$09
	.byte	$DD
	.byte	$80
	.byte	$80
_skeleton_dying_left6:
	.byte	$04
	.byte	$0C
	.byte	$D9
	.byte	$40
	.byte	$01
	.byte	$0C
	.byte	$DF
	.byte	$40
	.byte	$F9
	.byte	$0C
	.byte	$DC
	.byte	$40
	.byte	$FB
	.byte	$0C
	.byte	$DD
	.byte	$40
	.byte	$80
_skeleton_dying_left7:
	.byte	$04
	.byte	$0C
	.byte	$D9
	.byte	$40
	.byte	$01
	.byte	$0C
	.byte	$DF
	.byte	$40
	.byte	$F9
	.byte	$0C
	.byte	$DC
	.byte	$40
	.byte	$F9
	.byte	$0C
	.byte	$DD
	.byte	$C0
	.byte	$80
_skeleton_animation_index:
	.byte	$00
	.byte	$01
	.byte	$02
	.byte	$01
	.byte	$04
	.byte	$04
	.byte	$0C
	.byte	$07
	.byte	$1A
	.byte	$01
	.byte	$1C
	.byte	$07
	.byte	$04
	.byte	$04
_skeleton_animation:
	.addr	_skeleton_left_still
	.addr	_skeleton_right_still
	.addr	_skeleton_left_turn
	.addr	_skeleton_right_turn
	.addr	_skeleton_left_walk1
	.addr	_skeleton_left_walk2
	.addr	_skeleton_left_walk3
	.addr	_skeleton_left_walk4
	.addr	_skeleton_right_walk1
	.addr	_skeleton_right_walk2
	.addr	_skeleton_right_walk3
	.addr	_skeleton_right_walk4
	.addr	_skeleton_dying_left1
	.addr	_skeleton_dying_left2
	.addr	_skeleton_dying_left3
	.addr	_skeleton_dying_left4
	.addr	_skeleton_dying_left5
	.addr	_skeleton_dying_left6
	.addr	_skeleton_dying_left7
	.addr	_skeleton_dying_right1
	.addr	_skeleton_dying_right2
	.addr	_skeleton_dying_right3
	.addr	_skeleton_dying_right4
	.addr	_skeleton_dying_right5
	.addr	_skeleton_dying_right6
	.addr	_skeleton_dying_right7
	.addr	_skeleton_dying_left7
	.addr	_skeleton_dying_right7
	.addr	_skeleton_dying_left7
	.addr	_skeleton_dying_left6
	.addr	_skeleton_dying_left5
	.addr	_skeleton_dying_left4
	.addr	_skeleton_dying_left3
	.addr	_skeleton_dying_left2
	.addr	_skeleton_dying_left1
	.addr	_skeleton_dying_right7
	.addr	_skeleton_dying_right6
	.addr	_skeleton_dying_right5
	.addr	_skeleton_dying_right4
	.addr	_skeleton_dying_right3
	.addr	_skeleton_dying_right2
	.addr	_skeleton_dying_right1
_skull_rotate_left1:
	.byte	$00
	.byte	$00
	.byte	$00
	.byte	$00
	.byte	$80
_skull_rotate_left2:
	.byte	$00
	.byte	$00
	.byte	$02
	.byte	$40
	.byte	$80
_skull_rotate_left3:
	.byte	$00
	.byte	$00
	.byte	$03
	.byte	$80
	.byte	$80
_skull_rotate_left4:
	.byte	$00
	.byte	$00
	.byte	$02
	.byte	$00
	.byte	$80
_skull_rotate_left5:
	.byte	$00
	.byte	$00
	.byte	$00
	.byte	$40
	.byte	$80
_skull_rotate_left6:
	.byte	$00
	.byte	$00
	.byte	$01
	.byte	$00
	.byte	$80
_skull_rotate_right1:
	.byte	$00
	.byte	$00
	.byte	$00
	.byte	$00
	.byte	$80
_skull_rotate_right2:
	.byte	$00
	.byte	$00
	.byte	$01
	.byte	$00
	.byte	$80
_skull_rotate_right3:
	.byte	$00
	.byte	$00
	.byte	$00
	.byte	$40
	.byte	$80
_skull_rotate_right4:
	.byte	$00
	.byte	$00
	.byte	$02
	.byte	$00
	.byte	$80
_skull_rotate_right5:
	.byte	$00
	.byte	$00
	.byte	$03
	.byte	$80
	.byte	$80
_skull_rotate_right6:
	.byte	$00
	.byte	$00
	.byte	$02
	.byte	$40
	.byte	$80
_skull_animation_index:
	.byte	$00
	.byte	$01
	.byte	$00
	.byte	$00
	.byte	$02
	.byte	$06
_skull_animation:
	.addr	_skull_rotate_left1
	.addr	_skull_rotate_right1
	.addr	_skull_rotate_left1
	.addr	_skull_rotate_left2
	.addr	_skull_rotate_left3
	.addr	_skull_rotate_left4
	.addr	_skull_rotate_left5
	.addr	_skull_rotate_left6
	.addr	_skull_rotate_right1
	.addr	_skull_rotate_right2
	.addr	_skull_rotate_right3
	.addr	_skull_rotate_right4
	.addr	_skull_rotate_right5
	.addr	_skull_rotate_right6
_no_star:
	.byte	$00
	.byte	$F0
	.byte	$FF
	.byte	$00
	.byte	$80
_star_0_data:
	.byte	$FD
	.byte	$E9
	.byte	$08
	.byte	$00
	.byte	$11
	.byte	$FC
	.byte	$08
	.byte	$00
	.byte	$E8
	.byte	$FC
	.byte	$08
	.byte	$00
	.byte	$F0
	.byte	$13
	.byte	$08
	.byte	$00
	.byte	$09
	.byte	$13
	.byte	$08
	.byte	$00
	.byte	$80
_star_1_data:
	.byte	$06
	.byte	$ED
	.byte	$08
	.byte	$00
	.byte	$0F
	.byte	$04
	.byte	$08
	.byte	$00
	.byte	$EE
	.byte	$F6
	.byte	$08
	.byte	$00
	.byte	$ED
	.byte	$0B
	.byte	$08
	.byte	$00
	.byte	$01
	.byte	$12
	.byte	$08
	.byte	$00
	.byte	$80
_star_2_data:
	.byte	$0A
	.byte	$F3
	.byte	$08
	.byte	$00
	.byte	$0A
	.byte	$07
	.byte	$08
	.byte	$00
	.byte	$F6
	.byte	$F2
	.byte	$08
	.byte	$00
	.byte	$EE
	.byte	$00
	.byte	$08
	.byte	$00
	.byte	$FA
	.byte	$0E
	.byte	$08
	.byte	$00
	.byte	$80
_star_3_data:
	.byte	$07
	.byte	$FA
	.byte	$08
	.byte	$00
	.byte	$03
	.byte	$07
	.byte	$08
	.byte	$00
	.byte	$FC
	.byte	$F1
	.byte	$08
	.byte	$00
	.byte	$F1
	.byte	$F8
	.byte	$08
	.byte	$00
	.byte	$F5
	.byte	$07
	.byte	$08
	.byte	$00
	.byte	$80
_star_4_data:
	.byte	$06
	.byte	$00
	.byte	$08
	.byte	$00
	.byte	$FC
	.byte	$07
	.byte	$08
	.byte	$00
	.byte	$02
	.byte	$F6
	.byte	$08
	.byte	$00
	.byte	$F8
	.byte	$F5
	.byte	$08
	.byte	$00
	.byte	$F3
	.byte	$FF
	.byte	$08
	.byte	$00
	.byte	$80
_star_5_data:
	.byte	$02
	.byte	$01
	.byte	$08
	.byte	$00
	.byte	$F9
	.byte	$01
	.byte	$08
	.byte	$00
	.byte	$03
	.byte	$FA
	.byte	$08
	.byte	$00
	.byte	$FD
	.byte	$F5
	.byte	$08
	.byte	$00
	.byte	$F7
	.byte	$FA
	.byte	$08
	.byte	$00
	.byte	$80
_star_6_data:
	.byte	$FD
	.byte	$03
	.byte	$08
	.byte	$00
	.byte	$F7
	.byte	$FE
	.byte	$08
	.byte	$00
	.byte	$03
	.byte	$FE
	.byte	$08
	.byte	$00
	.byte	$01
	.byte	$F8
	.byte	$08
	.byte	$00
	.byte	$FB
	.byte	$F8
	.byte	$08
	.byte	$00
	.byte	$80
_star_7_data:
	.byte	$FD
	.byte	$F8
	.byte	$08
	.byte	$00
	.byte	$01
	.byte	$FC
	.byte	$08
	.byte	$00
	.byte	$F9
	.byte	$FB
	.byte	$08
	.byte	$00
	.byte	$FA
	.byte	$01
	.byte	$08
	.byte	$00
	.byte	$FF
	.byte	$01
	.byte	$08
	.byte	$00
	.byte	$80
_star_8_data:
	.byte	$FD
	.byte	$00
	.byte	$08
	.byte	$00
	.byte	$00
	.byte	$FB
	.byte	$08
	.byte	$00
	.byte	$FA
	.byte	$FB
	.byte	$08
	.byte	$00
	.byte	$80
_star_9_data:
	.byte	$FD
	.byte	$FD
	.byte	$08
	.byte	$00
	.byte	$80
_stars_animation_index:
	.byte	$00
	.byte	$01
	.byte	$01
	.byte	$0A
	.byte	$00
	.byte	$01
_stars_animation:
	.addr	_no_star
	.addr	_star_0_data
	.addr	_star_1_data
	.addr	_star_2_data
	.addr	_star_3_data
	.addr	_star_4_data
	.addr	_star_5_data
	.addr	_star_6_data
	.addr	_star_7_data
	.addr	_star_8_data
	.addr	_star_9_data
.segment	"BANK0"
.segment	"CODE"

.segment	"BSS"

_bankLevel:
	.res	1,$00
_bankBuffer:
	.res	10,$00
.segment	"ZEROPAGE"
_pad1:
	.res	1,$00
_pad1_new:
	.res	1,$00
_pad_index:
	.res	1,$00
_temp_y_col:
	.res	1,$00
_temp_x_col:
	.res	1,$00
_chr_4_index:
	.res	1,$00
_chr_5_index:
	.res	1,$00
_i:
	.res	1,$00
_param1:
	.res	1,$00
_param2:
	.res	1,$00
_param3:
	.res	1,$00
_param4:
	.res	1,$00
_temp:
	.res	1,$00
_temp2:
	.res	1,$00
_temp_speed:
	.res	1,$00
_temp_x:
	.res	1,$00
_temp_y:
	.res	1,$00
_backup_col_type:
	.res	1,$00
_skull_launched:
	.res	1,$00
_p1_health:
	.res	1,$00
_p1_max_health:
	.res	1,$00
_brick_counter:
	.res	1,$00
_tombstone_count:
	.res	1,$00
_wait_timer:
	.res	1,$00
_game_state:
	.res	1,$00
_current_level:
	.res	1,$00
_paddle_count:
	.res	1,$00
_enemy_count:
	.res	1,$00
_story_step:
	.res	1,$00
_story_counter:
	.res	1,$00
_collision_index:
	.res	2,$00
_backup_col_index:
	.res	2,$00
_backup_nt_index:
	.res	2,$00
.segment	"XRAM"
_wram_array:
	.res	8192,$00
.segment	"BSS"
_c_map:
	.res	368,$00
_levels:
	.res	16,$00
_actors:
	.res	252,$00

; ---------------------------------------------------------------
; void __near__ animate_skeleton (void)
; ---------------------------------------------------------------

.segment	"CODE"

.proc	_animate_skeleton: near

.segment	"CODE"

;
; for (i = 6; i < 8; ++i) {
;
	lda     #$06
	sta     _i
L002C:	lda     _i
	cmp     #$08
	bcc     L0033
;
; }
;
	rts
;
; param1 = i;  // actor index
;
L0033:	sta     _param1
;
; if (actors.state[i] == DEAD){
;
	ldy     _i
	lda     _actors+228,y
	cmp     #$04
	bne     L0006
;
; actors.animation_delay[i] = 255;
;
	ldy     _i
	lda     #$FF
	sta     _actors+204,y
;
; if (game_state != STORY && actors.counter[i] == 254) {
;
	lda     _game_state
	cmp     #$02
	jeq     L0032
	ldy     _i
	lda     _actors+192,y
	cmp     #$FE
	jne     L0032
;
; actors.state[i] = RISING;
;
	ldy     _i
	lda     #$05
	sta     _actors+228,y
;
; actors.counter[i] == 0;
;
	ldy     _i
	lda     _actors+192,y
	jsr     booleq
;
; actors.animation_delay[i] = 16;
;
	ldy     _i
	lda     #$10
	sta     _actors+204,y
;
; } else if (actors.state[i] != DYING && actors.state[i] != RISING) {
;
	jmp     L0032
L0006:	ldy     _i
	lda     _actors+228,y
	cmp     #$03
	jeq     L0032
	ldy     _i
	lda     _actors+228,y
	cmp     #$05
	jeq     L0032
;
; temp_x = actors.x[i] + get_x_speed();
;
	ldy     _i
	lda     _actors,y
	jsr     pusha0
	jsr     _get_x_speed
	jsr     tosaddax
	sta     _temp_x
;
; temp_y_col = actors.y[i] + actors.height[i];
;
	ldy     _i
	lda     _actors+36,y
	clc
	ldy     _i
	adc     _actors+12,y
	sta     _temp_y_col
;
; temp_x_col = temp_x;
;
	lda     _temp_x
	sta     _temp_x_col
;
; if (actors.xDir[i] == RIGHT) {
;
	lda     #<(_actors+72)
	ldx     #>(_actors+72)
	clc
	adc     _i
	bcc     L001C
	inx
L001C:	ldy     #$00
	jsr     ldaidx
	cmp     #$01
	bne     L001B
;
; temp_x_col += actors.width[i];
;
	ldy     _i
	lda     _actors+24,y
	clc
	adc     _temp_x_col
	sta     _temp_x_col
;
; if (get_collision_type()) {
;
L001B:	jsr     _get_collision_type
	tax
	beq     L001E
;
; actors.current_frame[i] = 0;
;
	ldy     _i
	lda     #$00
	sta     _actors+216,y
;
; actors.counter[i] = 0;
;
	ldy     _i
	sta     _actors+192,y
;
; actors.state[i] = TURNING;
;
	ldy     _i
	lda     #$01
	sta     _actors+228,y
;
; actors.xDir[param1] = -actors.xDir[param1];
;
	lda     #<(_actors+72)
	ldx     #>(_actors+72)
	clc
	adc     _param1
	bcc     L0022
	inx
L0022:	sta     sreg
	stx     sreg+1
	lda     #<(_actors+72)
	ldx     #>(_actors+72)
	clc
	adc     _param1
	bcc     L0023
	inx
L0023:	ldy     #$00
	jsr     ldaidx
	eor     #$FF
	clc
	adc     #$01
	cmp     #$80
	sta     (sreg),y
;
; } else {
;
	jmp     L0032
;
; actors.x[i] = temp_x;
;
L001E:	ldy     _i
	lda     _temp_x
	sta     _actors,y
;
; set_animation_info(i, skeleton_animation_index);
;
L0032:	lda     _i
	jsr     pusha
	lda     #<(_skeleton_animation_index)
	ldx     #>(_skeleton_animation_index)
	jsr     _set_animation_info
;
; oam_meta_spr(actors.x[i], actors.y[i], skeleton_animation[actors.current_frame[i] + param2]);
;
	jsr     decsp2
	ldy     _i
	lda     _actors,y
	ldy     #$01
	sta     (sp),y
	ldy     _i
	lda     _actors+12,y
	ldy     #$00
	sta     (sp),y
	ldy     _i
	ldx     #$00
	lda     _actors+216,y
	clc
	adc     _param2
	bcc     L002A
	inx
L002A:	stx     tmp1
	asl     a
	rol     tmp1
	clc
	adc     #<(_skeleton_animation)
	sta     ptr1
	lda     tmp1
	adc     #>(_skeleton_animation)
	sta     ptr1+1
	ldy     #$01
	lda     (ptr1),y
	tax
	dey
	lda     (ptr1),y
	jsr     _oam_meta_spr
;
; for (i = 6; i < 8; ++i) {
;
	inc     _i
	jmp     L002C

.endproc

; ---------------------------------------------------------------
; void __near__ set_animation_info (const unsigned char index, const unsigned char (*array)[2])
; ---------------------------------------------------------------

.segment	"CODE"

.proc	_set_animation_info: near

.segment	"CODE"

;
; void set_animation_info(const unsigned char index, const unsigned char array[][2]) {
;
	jsr     pushax
;
; param2 = array[actors.state[index]][0];  // animation index
;
	ldy     #$02
	lda     (sp),y
	tay
	ldx     #$00
	lda     _actors+228,y
	asl     a
	bcc     L0020
	inx
	clc
L0020:	ldy     #$00
	adc     (sp),y
	sta     ptr1
	txa
	iny
	adc     (sp),y
	sta     ptr1+1
	dey
	lda     (ptr1),y
	sta     _param2
;
; param3 = array[actors.state[index]][1];  // number of frames
;
	ldy     #$02
	lda     (sp),y
	tay
	ldx     #$00
	lda     _actors+228,y
	asl     a
	bcc     L0021
	inx
	clc
L0021:	ldy     #$00
	adc     (sp),y
	sta     ptr1
	txa
	iny
	adc     (sp),y
	sta     ptr1+1
	lda     (ptr1),y
	sta     _param3
;
; if (actors.counter[index] == actors.animation_delay[index]) {
;
	iny
	lda     (sp),y
	tay
	lda     _actors+192,y
	sta     ptr1
	ldy     #$02
	lda     (sp),y
	tay
	lda     _actors+204,y
	cmp     ptr1
	jne     L0005
;
; if ((actors.state[index] % 2 != 0) && actors.current_frame[index] == param3 - 1) {
;
	ldy     #$02
	lda     (sp),y
	tay
	lda     _actors+228,y
	and     #$01
	jeq     L0008
	ldy     #$02
	lda     (sp),y
	tay
	lda     _actors+216,y
	jsr     pusha0
	lda     _param3
	sec
	sbc     #$01
	bcs     L000D
	ldx     #$FF
L000D:	jsr     tosicmp
	bne     L0008
;
; ++actors.state[index];                   // NEXT STATE
;
	lda     #<(_actors+228)
	ldx     #>(_actors+228)
	ldy     #$02
	clc
	adc     (sp),y
	bcc     L0010
	inx
L0010:	sta     ptr1
	stx     ptr1+1
	ldy     #$00
	lda     #$01
	clc
	adc     (ptr1),y
	sta     (ptr1),y
;
; param2 = array[actors.state[index]][0];  // animation index
;
	ldy     #$02
	lda     (sp),y
	tay
	ldx     #$00
	lda     _actors+228,y
	asl     a
	bcc     L0022
	inx
	clc
L0022:	ldy     #$00
	adc     (sp),y
	sta     ptr1
	txa
	iny
	adc     (sp),y
	sta     ptr1+1
	dey
	lda     (ptr1),y
	sta     _param2
;
; param3 = array[actors.state[index]][1];  // number of frames
;
	ldy     #$02
	lda     (sp),y
	tay
	ldx     #$00
	lda     _actors+228,y
	asl     a
	bcc     L0023
	inx
	clc
L0023:	ldy     #$00
	adc     (sp),y
	sta     ptr1
	txa
	iny
	adc     (sp),y
	sta     ptr1+1
	lda     (ptr1),y
	sta     _param3
;
; actors.current_frame[index] = 0;
;
	iny
	lda     (sp),y
	tay
	lda     #$00
	sta     _actors+216,y
;
; } else {
;
	jmp     L0015
;
; actors.current_frame[index] = ++actors.current_frame[index] % param3;
;
L0008:	lda     #<(_actors+216)
	ldx     #>(_actors+216)
	ldy     #$02
	clc
	adc     (sp),y
	bcc     L0016
	inx
L0016:	jsr     pushax
	lda     #<(_actors+216)
	ldx     #>(_actors+216)
	ldy     #$04
	clc
	adc     (sp),y
	bcc     L0017
	inx
L0017:	sta     ptr1
	stx     ptr1+1
	ldy     #$00
	lda     #$01
	clc
	adc     (ptr1),y
	sta     (ptr1),y
	jsr     pusha0
	lda     _param3
	jsr     tosumoda0
	ldy     #$00
	jsr     staspidx
;
; actors.counter[index] = 0;
;
L0015:	ldy     #$02
	lda     (sp),y
	tay
	lda     #$00
	sta     _actors+192,y
;
; ++actors.counter[index];
;
L0005:	lda     #<(_actors+192)
	ldx     #>(_actors+192)
	ldy     #$02
	clc
	adc     (sp),y
	bcc     L0019
	inx
L0019:	sta     ptr1
	stx     ptr1+1
	ldy     #$00
	lda     #$01
	clc
	adc     (ptr1),y
	sta     (ptr1),y
;
; if (actors.xDir[index] == RIGHT) {
;
	lda     #<(_actors+72)
	ldx     #>(_actors+72)
	ldy     #$02
	clc
	adc     (sp),y
	bcc     L001B
	inx
L001B:	ldy     #$00
	jsr     ldaidx
	cmp     #$01
	bne     L001A
;
; param2 += param3;
;
	lda     _param3
	clc
	adc     _param2
	sta     _param2
;
; }
;
L001A:	jmp     incsp3

.endproc

; ---------------------------------------------------------------
; signed char __near__ get_x_speed (void)
; ---------------------------------------------------------------

.segment	"CODE"

.proc	_get_x_speed: near

.segment	"CODE"

;
; temp_speed = actors.xSpeed[param1] >> 7;
;
	ldy     _param1
	lda     _actors+96,y
	lsr     a
	lsr     a
	lsr     a
	lsr     a
	lsr     a
	lsr     a
	lsr     a
	sta     _temp_speed
;
; actors.xRemain[param1] += actors.xSpeed[param1] & 0b01111111;  // MODULO 128
;
	lda     #<(_actors+120)
	ldx     #>(_actors+120)
	clc
	adc     _param1
	bcc     L0003
	inx
L0003:	sta     sreg
	stx     sreg+1
	sta     ptr1
	stx     ptr1+1
	ldy     #$00
	lda     (ptr1),y
	sta     ptr1
	ldy     _param1
	lda     _actors+96,y
	and     #$7F
	clc
	adc     ptr1
	ldy     #$00
	sta     (sreg),y
;
; temp = 0;
;
	tya
	sta     _temp
;
; temp2 = 0;
;
	sta     _temp2
;
; if (actors.xRemain[param1] > 127) {
;
	ldy     _param1
	lda     _actors+120,y
	cmp     #$80
	bcc     L0005
;
; actors.xRemain[param1] &= 0b01111111;
;
	lda     #<(_actors+120)
	ldx     #>(_actors+120)
	clc
	adc     _param1
	bcc     L0007
	inx
L0007:	sta     ptr1
	stx     ptr1+1
	ldy     #$00
	lda     (ptr1),y
	and     #$7F
	sta     (ptr1),y
;
; temp = 1;
;
	lda     #$01
	sta     _temp
;
; temp2 = ((actors.xVelocity[param1] > 40) || (actors.xVelocity[param1] % 2)) ? 1 : 0;
;
L0005:	ldy     _param1
	lda     _actors+144,y
	cmp     #$29
	bcs     L0017
	ldy     _param1
	lda     _actors+144,y
	and     #$01
	beq     L0019
L0017:	lda     #$01
L0019:	sta     _temp2
;
; if (actors.xVelocity[param1]) {
;
	ldy     _param1
	ldx     #$00
	lda     _actors+144,y
	beq     L001A
;
; --actors.xVelocity[param1];
;
	lda     #<(_actors+144)
	ldx     #>(_actors+144)
	clc
	adc     _param1
	bcc     L0010
	inx
L0010:	sta     ptr1
	stx     ptr1+1
	ldy     #$00
	lda     (ptr1),y
	sec
	sbc     #$01
	sta     (ptr1),y
;
; return (temp_speed + temp + temp2) * actors.xDir[param1];
;
	ldx     #$00
L001A:	lda     _temp_speed
	clc
	adc     _temp
	bcc     L0016
	inx
	clc
L0016:	adc     _temp2
	bcc     L0014
	inx
L0014:	jsr     pushax
	lda     #<(_actors+72)
	ldx     #>(_actors+72)
	clc
	adc     _param1
	bcc     L0011
	inx
L0011:	ldy     #$00
	jsr     ldaidx
	jsr     tosmulax
	ldx     #$00
	cmp     #$80
	bcc     L0001
	dex
;
; }
;
L0001:	rts

.endproc

; ---------------------------------------------------------------
; signed char __near__ get_y_speed (void)
; ---------------------------------------------------------------

.segment	"CODE"

.proc	_get_y_speed: near

.segment	"CODE"

;
; temp_speed = actors.ySpeed[param1] >> 7;
;
	ldy     _param1
	lda     _actors+108,y
	lsr     a
	lsr     a
	lsr     a
	lsr     a
	lsr     a
	lsr     a
	lsr     a
	sta     _temp_speed
;
; actors.yRemain[param1] += actors.ySpeed[param1] & 0b01111111;  // MODULO 128
;
	lda     #<(_actors+132)
	ldx     #>(_actors+132)
	clc
	adc     _param1
	bcc     L0003
	inx
L0003:	sta     sreg
	stx     sreg+1
	sta     ptr1
	stx     ptr1+1
	ldy     #$00
	lda     (ptr1),y
	sta     ptr1
	ldy     _param1
	lda     _actors+108,y
	and     #$7F
	clc
	adc     ptr1
	ldy     #$00
	sta     (sreg),y
;
; temp = 0;
;
	tya
	sta     _temp
;
; temp2 = 0;
;
	sta     _temp2
;
; if (actors.yRemain[param1] > 127) {
;
	ldy     _param1
	lda     _actors+132,y
	cmp     #$80
	bcc     L0005
;
; actors.yRemain[param1] &= 0b01111111;
;
	lda     #<(_actors+132)
	ldx     #>(_actors+132)
	clc
	adc     _param1
	bcc     L0007
	inx
L0007:	sta     ptr1
	stx     ptr1+1
	ldy     #$00
	lda     (ptr1),y
	and     #$7F
	sta     (ptr1),y
;
; temp = 1;
;
	lda     #$01
	sta     _temp
;
; temp2 = ((actors.yVelocity[param1] > 40) || (actors.yVelocity[param1] % 2)) ? 1 : 0;
;
L0005:	ldy     _param1
	lda     _actors+156,y
	cmp     #$29
	bcs     L0017
	ldy     _param1
	lda     _actors+156,y
	and     #$01
	beq     L0019
L0017:	lda     #$01
L0019:	sta     _temp2
;
; if (actors.yVelocity[param1]) {
;
	ldy     _param1
	ldx     #$00
	lda     _actors+156,y
	beq     L001A
;
; --actors.yVelocity[param1];
;
	lda     #<(_actors+156)
	ldx     #>(_actors+156)
	clc
	adc     _param1
	bcc     L0010
	inx
L0010:	sta     ptr1
	stx     ptr1+1
	ldy     #$00
	lda     (ptr1),y
	sec
	sbc     #$01
	sta     (ptr1),y
;
; return (temp_speed + temp + temp2) * actors.yDir[param1];
;
	ldx     #$00
L001A:	lda     _temp_speed
	clc
	adc     _temp
	bcc     L0016
	inx
	clc
L0016:	adc     _temp2
	bcc     L0014
	inx
L0014:	jsr     pushax
	lda     #<(_actors+84)
	ldx     #>(_actors+84)
	clc
	adc     _param1
	bcc     L0011
	inx
L0011:	ldy     #$00
	jsr     ldaidx
	jsr     tosmulax
	ldx     #$00
	cmp     #$80
	bcc     L0001
	dex
;
; }
;
L0001:	rts

.endproc

; ---------------------------------------------------------------
; void __near__ banked_call (unsigned char bankId, void (*method)(void))
; ---------------------------------------------------------------

.segment	"STARTUP"

.proc	_banked_call: near

.segment	"STARTUP"

;
; void banked_call(unsigned char bankId, void (*method)(void)) {
;
	jsr     pushax
;
; bank_push(bankId);
;
	ldy     #$02
	lda     (sp),y
	jsr     _bank_push
;
; (*method)();
;
	ldy     #$01
	lda     (sp),y
	tax
	dey
	lda     (sp),y
	jsr     callax
;
; bank_pop();
;
	jsr     _bank_pop
;
; }
;
	jmp     incsp3

.endproc

; ---------------------------------------------------------------
; void __near__ bank_push (unsigned char bankId)
; ---------------------------------------------------------------

.segment	"STARTUP"

.proc	_bank_push: near

.segment	"STARTUP"

;
; void bank_push(unsigned char bankId) {
;
	jsr     pusha
;
; bankBuffer[bankLevel] = bankId;
;
	ldy     #$00
	lda     (sp),y
	ldy     _bankLevel
	sta     _bankBuffer,y
;
; ++bankLevel;
;
	inc     _bankLevel
;
; set_prg_8000(bankId);
;
	ldy     #$00
	lda     (sp),y
	jsr     _set_prg_8000
;
; }
;
	jmp     incsp1

.endproc

; ---------------------------------------------------------------
; void __near__ bank_pop (void)
; ---------------------------------------------------------------

.segment	"STARTUP"

.proc	_bank_pop: near

.segment	"STARTUP"

;
; --bankLevel;
;
	dec     _bankLevel
;
; if (bankLevel > 0) {
;
	beq     L0002
;
; set_prg_8000(bankBuffer[bankLevel-1]);
;
	ldx     #$00
	lda     _bankLevel
	sec
	sbc     #$01
	bcs     L0003
	dex
L0003:	sta     ptr1
	txa
	clc
	adc     #>(_bankBuffer)
	sta     ptr1+1
	ldy     #<(_bankBuffer)
	lda     (ptr1),y
	jmp     _set_prg_8000
;
; }
;
L0002:	rts

.endproc

; ---------------------------------------------------------------
; void __near__ init_skeletons (void)
; ---------------------------------------------------------------

.segment	"BANK0"

.proc	_init_skeletons: near

.segment	"BANK0"

;
; for (i = 6; i < 8; ++i) {
;
	lda     #$06
	sta     _i
L001F:	lda     _i
	cmp     #$08
	bcc     L0020
;
; }
;
	rts
;
; if (i == 6) {
;
L0020:	cmp     #$06
	bne     L0006
;
; actors.x[i] = 40;
;
	ldy     _i
	lda     #$28
	sta     _actors,y
;
; actors.y[i] = 72;
;
	ldy     _i
	lda     #$48
	sta     _actors+12,y
;
; actors.xDir[i] = LEFT;
;
	ldy     _i
	lda     #$FF
;
; } else {
;
	jmp     L001E
;
; actors.x[i] = 160;
;
L0006:	ldy     _i
	lda     #$A0
	sta     _actors,y
;
; actors.y[i] = 104;
;
	ldy     _i
	lda     #$68
	sta     _actors+12,y
;
; actors.xDir[i] = RIGHT;
;
	ldy     _i
	lda     #$01
L001E:	sta     _actors+72,y
;
; actors.width[i] = 0x04;
;
	ldy     _i
	lda     #$04
	sta     _actors+24,y
;
; actors.height[i] = 0x14;
;
	ldy     _i
	lda     #$14
	sta     _actors+36,y
;
; actors.bbox_x[i] = 0x01;
;
	ldy     _i
	lda     #$01
	sta     _actors+48,y
;
; actors.bbox_y[i] = 0x02;
;
	ldy     _i
	lda     #$02
	sta     _actors+60,y
;
; actors.yDir[i] = NULL;
;
	ldy     _i
	lda     #$00
	sta     _actors+84,y
;
; actors.xSpeed[i] = 10;
;
	ldy     _i
	lda     #$0A
	sta     _actors+96,y
;
; actors.ySpeed[i] = 0;
;
	ldy     _i
	lda     #$00
	sta     _actors+108,y
;
; actors.xVelocity[i] = 0;
;
	ldy     _i
	sta     _actors+144,y
;
; actors.yVelocity[i] = 0;
;
	ldy     _i
	sta     _actors+156,y
;
; actors.minSpeed[i] = 0;
;
	ldy     _i
	sta     _actors+168,y
;
; actors.maxSpeed[i] = 20;
;
	ldy     _i
	lda     #$14
	sta     _actors+180,y
;
; actors.counter[i] = 0;
;
	ldy     _i
	lda     #$00
	sta     _actors+192,y
;
; actors.animation_delay[i] = 16;
;
	ldy     _i
	lda     #$10
	sta     _actors+204,y
;
; actors.current_frame[i] = 0;
;
	ldy     _i
	lda     #$00
	sta     _actors+216,y
;
; actors.state[i] = DEAD;
;
	ldy     _i
	lda     #$04
	sta     _actors+228,y
;
; actors.type[i] = TYPE_SKELETON;
;
	ldy     _i
	lda     #$01
	sta     _actors+240,y
;
; for (i = 6; i < 8; ++i) {
;
	inc     _i
	jmp     L001F

.endproc

; ---------------------------------------------------------------
; void __near__ init_levels (void)
; ---------------------------------------------------------------

.segment	"BANK0"

.proc	_init_levels: near

.segment	"BANK0"

;
; levels.nametable[0] = altar;
;
	lda     #>(_altar)
	sta     _levels+1
	lda     #<(_altar)
	sta     _levels
;
; levels.collision_map[0] = cemetery_col;
;
	lda     #>(_cemetery_col)
	sta     _levels+4+1
	lda     #<(_cemetery_col)
	sta     _levels+4
;
; levels.background_palette[0] = pal_altar_bg;
;
	lda     #>(_pal_altar_bg)
	sta     _levels+8+1
	lda     #<(_pal_altar_bg)
	sta     _levels+8
;
; levels.sprite_palette[0] = pal_altar_spr;
;
	lda     #>(_pal_altar_spr)
	sta     _levels+12+1
	lda     #<(_pal_altar_spr)
	sta     _levels+12
;
; levels.nametable[1] = cemetery;
;
	lda     #>(_cemetery)
	sta     _levels+2+1
	lda     #<(_cemetery)
	sta     _levels+2
;
; levels.collision_map[1] = cemetery_col;
;
	lda     #>(_cemetery_col)
	sta     _levels+6+1
	lda     #<(_cemetery_col)
	sta     _levels+6
;
; levels.background_palette[1] = pal_cemetery_bg;
;
	lda     #>(_pal_cemetery_bg)
	sta     _levels+10+1
	lda     #<(_pal_cemetery_bg)
	sta     _levels+10
;
; levels.sprite_palette[1] = pal_cemetery_spr;
;
	lda     #>(_pal_cemetery_spr)
	sta     _levels+14+1
	lda     #<(_pal_cemetery_spr)
	sta     _levels+14
;
; actors.x[STARS] = 127;
;
	lda     #$7F
	sta     _actors+10
;
; actors.y[STARS] = 136;
;
	lda     #$88
	sta     _actors+22
;
; actors.state[STARS] = IDLE;
;
	lda     #$00
	sta     _actors+238
;
; actors.animation_delay[STARS] = 8;
;
	lda     #$08
	sta     _actors+214
;
; };
;
	rts

.endproc

; ---------------------------------------------------------------
; void __near__ init_level_specifics (void)
; ---------------------------------------------------------------

.segment	"BANK0"

.proc	_init_level_specifics: near

.segment	"BANK0"

;
; switch (current_level) {
;
	lda     _current_level
;
; }
;
	jeq     L0046
	cmp     #$01
	jeq     L0049
	cmp     #$02
	jeq     L004A
	cmp     #$03
	jeq     L004B
	cmp     #$04
	jeq     L004B
	cmp     #$05
	jeq     L004B
	cmp     #$06
	jeq     L004B
	cmp     #$07
	jeq     L004B
	cmp     #$08
	jeq     L004B
	cmp     #$09
	jeq     L004B
	cmp     #$0A
	jeq     L004B
	cmp     #$0B
	jeq     L004B
	cmp     #$0C
	jeq     L004B
	cmp     #$0D
	jeq     L004B
	cmp     #$0E
	jeq     L004B
	cmp     #$0F
	jeq     L004B
	cmp     #$10
	jeq     L004B
	cmp     #$11
	jeq     L004B
	cmp     #$12
	jeq     L004B
	cmp     #$13
	jeq     L004B
	cmp     #$14
	jeq     L004B
	cmp     #$15
	jeq     L004B
	cmp     #$16
	jeq     L004B
	cmp     #$17
	jeq     L004B
	cmp     #$18
	jeq     L004B
	cmp     #$19
	jeq     L004B
	cmp     #$1A
	jeq     L004B
	cmp     #$1B
	jeq     L004B
	cmp     #$1C
	jeq     L004B
	cmp     #$1D
	jeq     L004B
	cmp     #$1E
	jeq     L004B
	cmp     #$1F
	jeq     L004B
	cmp     #$20
	jeq     L004B
	cmp     #$21
	jeq     L004B
	jmp     L004B
;
; set_chr_mode_1(0x0A);
;
L0046:	lda     #$0A
	jsr     _set_chr_mode_1
;
; actors.x[0] = 64;
;
	lda     #$40
	sta     _actors
;
; actors.x[1] = 88;
;
	lda     #$58
	sta     _actors+1
;
; actors.x[2] = 160;
;
	lda     #$A0
	sta     _actors+2
;
; actors.x[3] = 184;
;
	lda     #$B8
	sta     _actors+3
;
; for (i = 0; i < 4; ++i) {
;
	lda     #$00
	sta     _i
L0047:	lda     _i
	cmp     #$04
	bcs     L0048
;
; actors.y[i] = 72;
;
	ldy     _i
	lda     #$48
	sta     _actors+12,y
;
; actors.animation_delay[i] = 8;
;
	ldy     _i
	lda     #$08
	sta     _actors+204,y
;
; actors.current_frame[i] = i;
;
	ldy     _i
	lda     _i
	sta     _actors+216,y
;
; actors.state[i] = IDLE;
;
	ldy     _i
	lda     #$00
	sta     _actors+228,y
;
; actors.xDir[i] = LEFT;
;
	ldy     _i
	lda     #$FF
	sta     _actors+72,y
;
; for (i = 0; i < 4; ++i) {
;
	inc     _i
	jmp     L0047
;
; actors.animation_delay[NECROMANCER] = 20;
;
L0048:	lda     #$14
	sta     _actors+209
;
; actors.current_frame[NECROMANCER] = 0;
;
	lda     #$00
	sta     _actors+221
;
; actors.state[NECROMANCER] = IDLE;
;
	sta     _actors+233
;
; actors.xDir[NECROMANCER] = LEFT;
;
	lda     #$FF
	sta     _actors+77
;
; actors.state[LIGHTNING] = IDLE;
;
	lda     #$00
	sta     _actors+234
;
; actors.animation_delay[LIGHTNING] = 8;
;
	lda     #$08
	sta     _actors+210
;
; break;
;
	jmp     L004B
;
; actors.x[DOOR] = 120;
;
L0049:	lda     #$78
	sta     _actors+9
;
; actors.y[DOOR] = 48;
;
	lda     #$30
	sta     _actors+21
;
; actors.state[DOOR] = IDLE;
;
	lda     #$00
	sta     _actors+237
;
; actors.animation_delay[DOOR] = 16;
;
	lda     #$10
	sta     _actors+213
;
; set_chr_mode_1(0x07);
;
	lda     #$07
	jsr     _set_chr_mode_1
;
; enemy_count = 3;
;
	lda     #$03
	sta     _enemy_count
;
; chr_4_index = 2;
;
	lda     #$02
	sta     _chr_4_index
;
; chr_5_index = 3;
;
	lda     #$03
	sta     _chr_5_index
;
; paddle_count = 1;
;
	lda     #$01
	sta     _paddle_count
;
; actors.x[0] = 0x70;
;
	lda     #$70
	sta     _actors
;
; actors.y[0] = 0xD0;
;
	lda     #$D0
	sta     _actors+12
;
; banked_call(0, init_skeletons);
;
	lda     #$00
	jsr     pusha
	lda     #<(_init_skeletons)
	ldx     #>(_init_skeletons)
	jsr     _banked_call
;
; actors.x[CROW] = 207;
;
	lda     #$CF
	sta     _actors+8
;
; actors.y[CROW] = 117;
;
	lda     #$75
	sta     _actors+20
;
; actors.state[CROW] = 2;  // IDLE state of crow is 2... don't ask!
;
	lda     #$02
	sta     _actors+236
;
; actors.animation_delay[CROW] = 64;
;
	lda     #$40
	sta     _actors+212
;
; actors.current_frame[CROW] = 0;
;
	lda     #$00
	sta     _actors+224
;
; actors.xDir[CROW] = LEFT;
;
	lda     #$FF
	sta     _actors+80
;
; actors.yDir[CROW] = UP;
;
	sta     _actors+92
;
; actors.xSpeed[CROW] = 128;
;
	lda     #$80
	sta     _actors+104
;
; actors.ySpeed[CROW] = 32;
;
	lda     #$20
	sta     _actors+116
;
; actors.type[CROW] = TYPE_CROW;
;
	lda     #$00
	sta     _actors+248
;
; actors.bbox_x[CROW] = 0;
;
	sta     _actors+56
;
; actors.bbox_y[CROW] = 4;
;
	lda     #$04
	sta     _actors+68
;
; actors.width[CROW] = 16;
;
	lda     #$10
	sta     _actors+32
;
; actors.height[CROW] = 16;
;
	sta     _actors+44
;
; break;
;
	jmp     L004B
;
; paddle_count = 4;
;
L004A:	lda     #$04
	sta     _paddle_count
;
; actors.x[0] = 0x70;  // 14
;
	lda     #$70
	sta     _actors
;
; actors.y[0] = 0xD0;  // 26
;
	lda     #$D0
	sta     _actors+12
;
; actors.x[1] = 0x70;  // 14
;
	lda     #$70
	sta     _actors+1
;
; actors.y[1] = 0x38;  // 7
;
	lda     #$38
	sta     _actors+13
;
; actors.x[2] = 0x18;  // 3
;
	lda     #$18
	sta     _actors+2
;
; actors.y[2] = 0x70;  // 14
;
	lda     #$70
	sta     _actors+14
;
; actors.x[3] = 0xE0;  // 28
;
	lda     #$E0
	sta     _actors+3
;
; actors.y[3] = 0x70;  // 14
;
	lda     #$70
	sta     _actors+15
;
; for (i = 0; i < paddle_count; ++i) {
;
L004B:	lda     #$00
	sta     _i
L004C:	lda     _i
	cmp     _paddle_count
	bcc     L004D
;
; }
;
	rts
;
; if (i < 2) {
;
L004D:	cmp     #$02
	bcs     L0033
;
; actors.width[i] = 0x20;   // 32
;
	ldy     _i
	lda     #$20
	sta     _actors+24,y
;
; actors.height[i] = 0x04;  // 4
;
	ldy     _i
	lda     #$04
	sta     _actors+36,y
;
; actors.bbox_x[i] = 0x00;  // 2
;
	ldy     _i
	lda     #$00
	sta     _actors+48,y
;
; actors.bbox_y[i] = 0x02;
;
	ldy     _i
	lda     #$02
;
; } else {
;
	jmp     L0045
;
; actors.width[i] = 0x04;
;
L0033:	ldy     _i
	lda     #$04
	sta     _actors+24,y
;
; actors.height[i] = 0x20;
;
	ldy     _i
	lda     #$20
	sta     _actors+36,y
;
; actors.bbox_x[i] = 0x02;
;
	ldy     _i
	lda     #$02
	sta     _actors+48,y
;
; actors.bbox_y[i] = 0x00;
;
	ldy     _i
	lda     #$00
L0045:	sta     _actors+60,y
;
; actors.xDir[i] = 0;
;
	ldy     _i
	lda     #$00
	sta     _actors+72,y
;
; actors.yDir[i] = 0;
;
	ldy     _i
	sta     _actors+84,y
;
; actors.xSpeed[i] = 0;
;
	ldy     _i
	sta     _actors+96,y
;
; actors.ySpeed[i] = 0;
;
	ldy     _i
	sta     _actors+108,y
;
; actors.xVelocity[i] = 0;
;
	ldy     _i
	sta     _actors+144,y
;
; actors.yVelocity[i] = 0;
;
	ldy     _i
	sta     _actors+156,y
;
; actors.minSpeed[i] = 0;
;
	ldy     _i
	sta     _actors+168,y
;
; actors.maxSpeed[i] = 250;
;
	ldy     _i
	lda     #$FA
	sta     _actors+180,y
;
; for (i = 0; i < paddle_count; ++i) {
;
	inc     _i
	jmp     L004C

.endproc

; ---------------------------------------------------------------
; void __near__ init_skull (void)
; ---------------------------------------------------------------

.segment	"BANK0"

.proc	_init_skull: near

.segment	"BANK0"

;
; actors.x[SKULL] = 0xFF;
;
	lda     #$FF
	sta     _actors+4
;
; actors.y[SKULL] = 0xFF;
;
	sta     _actors+16
;
; actors.width[SKULL] = 6;
;
	lda     #$06
	sta     _actors+28
;
; actors.height[SKULL] = 6;
;
	sta     _actors+40
;
; actors.bbox_x[SKULL] = 1;
;
	lda     #$01
	sta     _actors+52
;
; actors.bbox_y[SKULL] = 1;
;
	sta     _actors+64
;
; actors.xDir[SKULL] = RIGHT;
;
	sta     _actors+76
;
; actors.yDir[SKULL] = UP;
;
	lda     #$FF
	sta     _actors+88
;
; actors.xSpeed[SKULL] = 100;
;
	lda     #$64
	sta     _actors+100
;
; actors.ySpeed[SKULL] = 100;
;
	sta     _actors+112
;
; actors.xRemain[SKULL] = 0;
;
	lda     #$00
	sta     _actors+124
;
; actors.yRemain[SKULL] = 0;
;
	sta     _actors+136
;
; actors.xVelocity[SKULL] = 0;
;
	sta     _actors+148
;
; actors.yVelocity[SKULL] = 0;
;
	sta     _actors+160
;
; actors.minSpeed[SKULL] = 64;
;
	lda     #$40
	sta     _actors+172
;
; actors.maxSpeed[SKULL] = 250;
;
	lda     #$FA
	sta     _actors+184
;
; actors.counter[SKULL] = 0;
;
	lda     #$00
	sta     _actors+196
;
; actors.animation_delay[SKULL] = 8;
;
	lda     #$08
	sta     _actors+208
;
; actors.current_frame[SKULL] = 0;
;
	lda     #$00
	sta     _actors+220
;
; actors.state[SKULL] = ROTATE_H;
;
	lda     #$02
	sta     _actors+232
;
; p1_health = 3;
;
	lda     #$03
	sta     _p1_health
;
; p1_max_health = 3;
;
	sta     _p1_max_health
;
; }
;
	rts

.endproc

; ---------------------------------------------------------------
; void __near__ debug (unsigned char value)
; ---------------------------------------------------------------

.segment	"CODE"

.proc	_debug: near

.segment	"CODE"

;
; void debug(unsigned char value) {
;
	jsr     pusha
;
; one_vram_buffer(value, NTADR_A(1, 1));
;
	ldy     #$00
	lda     (sp),y
	jsr     pusha
	ldx     #$20
	lda     #$21
	jsr     _one_vram_buffer
;
; }
;
	jmp     incsp1

.endproc

; ---------------------------------------------------------------
; void __near__ update_health (void)
; ---------------------------------------------------------------

.segment	"CODE"

.proc	_update_health: near

.segment	"CODE"

;
; if (p1_health > 0) {
;
	lda     _p1_health
	beq     L000E
;
; for (i = 0; i < p1_max_health; ++i) {
;
	lda     #$00
	sta     _i
L000B:	lda     _i
	cmp     _p1_max_health
	bcs     L000A
;
; one_vram_buffer((i < p1_health) ? TILE_HEART_FULL : TILE_HEART_EMPTY, NTADR_A(i + 2, 2));
;
	cmp     _p1_health
	bcs     L000C
	lda     #$5B
	jmp     L000D
L000C:	lda     #$5C
L000D:	jsr     pusha
	ldx     #$00
	lda     _i
	clc
	adc     #$02
	bcc     L0009
	inx
L0009:	ora     #$40
	pha
	txa
	ora     #$20
	tax
	pla
	jsr     _one_vram_buffer
;
; for (i = 0; i < p1_max_health; ++i) {
;
	inc     _i
	jmp     L000B
;
; one_vram_buffer(TILE_HEART_EMPTY, NTADR_A(2, 2));
;
L000E:	lda     #$5C
	jsr     pusha
	ldx     #$20
	lda     #$42
	jmp     _one_vram_buffer
;
; }
;
L000A:	rts

.endproc

; ---------------------------------------------------------------
; void __near__ update_xp (void)
; ---------------------------------------------------------------

.segment	"CODE"

.proc	_update_xp: near

.segment	"CODE"

;
; multi_vram_buffer_horz(exp, sizeof(exp), NTADR_A(12, 2));
;
	jsr     decsp3
	lda     #<(_exp)
	ldy     #$01
	sta     (sp),y
	iny
	lda     #>(_exp)
	sta     (sp),y
	lda     #$09
	ldy     #$00
	sta     (sp),y
	ldx     #$20
	lda     #$4C
	jmp     _multi_vram_buffer_horz

.endproc

; ---------------------------------------------------------------
; void __near__ add_xp (unsigned char value, unsigned char pos)
; ---------------------------------------------------------------

.segment	"CODE"

.proc	_add_xp: near

.segment	"CODE"

;
; void add_xp(unsigned char value, unsigned char pos) {
;
	jsr     pusha
;
; unsigned char result = exp[pos] + value - 0x30;
;
	ldy     #$00
	lda     (sp),y
	tay
	lda     _exp,y
	sta     ptr1
	ldy     #$01
	lda     (sp),y
	clc
	adc     ptr1
	sec
	sbc     #$30
	jsr     pusha
;
; if (result > 9) {
;
	ldy     #$00
	lda     (sp),y
	cmp     #$0A
	bcc     L0004
;
; if (pos == TEN_MILLIONS) {
;
	iny
	lda     (sp),y
	bne     L000C
;
; result = 9;
;
	lda     #$09
	dey
;
; } else {
;
	jmp     L000B
;
; add_xp(1, pos - 1);
;
L000C:	tya
	jsr     pusha
	ldy     #$02
	lda     (sp),y
	sec
	sbc     #$01
	jsr     _add_xp
;
; result -= 10;
;
	ldy     #$00
	lda     (sp),y
	sec
	sbc     #$0A
L000B:	sta     (sp),y
;
; exp[pos] = 0x30 + result;
;
L0004:	lda     #<(_exp)
	ldx     #>(_exp)
	iny
	clc
	adc     (sp),y
	bcc     L0008
	inx
L0008:	sta     ptr1
	stx     ptr1+1
	dey
	lda     (sp),y
	clc
	adc     #$30
	sta     (ptr1),y
;
; update_xp();
;
	jsr     _update_xp
;
; }
;
	jmp     incsp3

.endproc

; ---------------------------------------------------------------
; void __near__ show_HUD (void)
; ---------------------------------------------------------------

.segment	"CODE"

.proc	_show_HUD: near

.segment	"CODE"

;
; update_health();
;
	jsr     _update_health
;
; update_xp();
;
	jsr     _update_xp
;
; one_vram_buffer(0x5d, NTADR_A(22, 2));
;
	lda     #$5D
	jsr     pusha
	ldx     #$20
	lda     #$56
	jsr     _one_vram_buffer
;
; one_vram_buffer(0x5e, NTADR_A(23, 2));
;
	lda     #$5E
	jsr     pusha
	ldx     #$20
	lda     #$57
	jsr     _one_vram_buffer
;
; one_vram_buffer(0x5f, NTADR_A(24, 2));
;
	lda     #$5F
	jsr     pusha
	ldx     #$20
	lda     #$58
	jsr     _one_vram_buffer
;
; one_vram_buffer(0x7e, NTADR_A(23, 3));
;
	lda     #$7E
	jsr     pusha
	ldx     #$20
	lda     #$77
	jsr     _one_vram_buffer
;
; one_vram_buffer(0x7f, NTADR_A(24, 3));
;
	lda     #$7F
	jsr     pusha
	ldx     #$20
	lda     #$78
	jmp     _one_vram_buffer

.endproc

; ---------------------------------------------------------------
; void __near__ show_map (void)
; ---------------------------------------------------------------

.segment	"CODE"

.proc	_show_map: near

.segment	"CODE"

;
; ppu_off();
;
	jsr     _ppu_off
;
; oam_clear();
;
	jsr     _oam_clear
;
; set_chr_mode_4(8);
;
	lda     #$08
	jsr     _set_chr_mode_4
;
; set_chr_mode_5(9);
;
	lda     #$09
	jsr     _set_chr_mode_5
;
; pal_col(0x00, 0x0f);
;
	lda     #$00
	jsr     pusha
	lda     #$0F
	jsr     _pal_col
;
; pal_col(0x01, 0x28); // MAP BACK COLOR
;
	lda     #$01
	jsr     pusha
	lda     #$28
	jsr     _pal_col
;
; pal_col(0x02, 0x18);
;
	lda     #$02
	jsr     pusha
	lda     #$18
	jsr     _pal_col
;
; set_scroll_x(0x0100);
;
	ldx     #$01
	lda     #$00
	jsr     _set_scroll_x
;
; ppu_wait_nmi();
;
	jsr     _ppu_wait_nmi
;
; ppu_on_all();
;
	jmp     _ppu_on_all

.endproc

; ---------------------------------------------------------------
; void __near__ hide_map (void)
; ---------------------------------------------------------------

.segment	"CODE"

.proc	_hide_map: near

.segment	"CODE"

;
; pal_bg(levels.background_palette[current_level]);
;
	ldx     #$00
	lda     _current_level
	asl     a
	bcc     L0003
	inx
	clc
L0003:	adc     #<(_levels+8)
	sta     ptr1
	txa
	adc     #>(_levels+8)
	sta     ptr1+1
	ldy     #$01
	lda     (ptr1),y
	tax
	dey
	lda     (ptr1),y
	jsr     _pal_bg
;
; set_chr_mode_4(chr_4_index);
;
	lda     _chr_4_index
	jsr     _set_chr_mode_4
;
; set_chr_mode_5(chr_5_index);
;
	lda     _chr_5_index
	jsr     _set_chr_mode_5
;
; set_scroll_x(0x0000);
;
	ldx     #$00
	txa
	jmp     _set_scroll_x

.endproc

; ---------------------------------------------------------------
; void __near__ show_game_over (void)
; ---------------------------------------------------------------

.segment	"CODE"

.proc	_show_game_over: near

.segment	"CODE"

;
; }
;
	rts

.endproc

; ---------------------------------------------------------------
; void __near__ draw_level_specifics (void)
; ---------------------------------------------------------------

.segment	"CODE"

.proc	_draw_level_specifics: near

.segment	"CODE"

;
; switch (current_level) {
;
	lda     _current_level
;
; }
;
	beq     L0020
	cmp     #$01
	jeq     L0025
	cmp     #$02
	bne     L002B
;
; }
;
	rts
;
; }
;
L002B:	rts
;
; if (story_step < 5) {
;
L0020:	lda     _story_step
	cmp     #$05
	jcs     L0023
;
; for (i = 0; i < 4; ++i) {
;
	lda     #$00
	sta     _i
L0021:	lda     _i
	cmp     #$04
	bcs     L0022
;
; set_animation_info(i, torch_animation_index);
;
	jsr     pusha
	lda     #<(_torch_animation_index)
	ldx     #>(_torch_animation_index)
	jsr     _set_animation_info
;
; oam_meta_spr(actors.x[i], actors.y[i], torch_animation[actors.current_frame[i] + param2]);
;
	jsr     decsp2
	ldy     _i
	lda     _actors,y
	ldy     #$01
	sta     (sp),y
	ldy     _i
	lda     _actors+12,y
	ldy     #$00
	sta     (sp),y
	ldy     _i
	ldx     #$00
	lda     _actors+216,y
	clc
	adc     _param2
	bcc     L0019
	inx
L0019:	stx     tmp1
	asl     a
	rol     tmp1
	clc
	adc     #<(_torch_animation)
	sta     ptr1
	lda     tmp1
	adc     #>(_torch_animation)
	sta     ptr1+1
	ldy     #$01
	lda     (ptr1),y
	tax
	dey
	lda     (ptr1),y
	jsr     _oam_meta_spr
;
; for (i = 0; i < 4; ++i) {
;
	inc     _i
	jmp     L0021
;
; set_animation_info(NECROMANCER, necromancer_animation_index);
;
L0022:	lda     #$05
	jsr     pusha
	lda     #<(_necromancer_animation_index)
	ldx     #>(_necromancer_animation_index)
	jsr     _set_animation_info
;
; oam_meta_spr(120, 142, necromancer_animation[actors.current_frame[NECROMANCER] + param2]);
;
	jsr     decsp2
	lda     #$78
	ldy     #$01
	sta     (sp),y
	lda     #$8E
	dey
	sta     (sp),y
	ldx     #$00
	lda     _actors+221
	clc
	adc     _param2
	bcc     L001A
	inx
L001A:	stx     tmp1
	asl     a
	rol     tmp1
	clc
	adc     #<(_necromancer_animation)
	sta     ptr1
	lda     tmp1
	adc     #>(_necromancer_animation)
	sta     ptr1+1
	iny
	lda     (ptr1),y
	tax
	dey
	lda     (ptr1),y
	jsr     _oam_meta_spr
;
; set_animation_info(LIGHTNING, lightning_animation_index);
;
	lda     #$06
	jsr     pusha
	lda     #<(_lightning_animation_index)
	ldx     #>(_lightning_animation_index)
	jsr     _set_animation_info
;
; oam_meta_spr(128, 108, lightning_animation[actors.current_frame[LIGHTNING] + param2]);
;
	jsr     decsp2
	lda     #$80
	ldy     #$01
	sta     (sp),y
	lda     #$6C
	dey
	sta     (sp),y
	ldx     #$00
	lda     _actors+222
	clc
	adc     _param2
	bcc     L001B
	inx
L001B:	stx     tmp1
	asl     a
	rol     tmp1
	clc
	adc     #<(_lightning_animation)
	sta     ptr1
	lda     tmp1
	adc     #>(_lightning_animation)
	sta     ptr1+1
	iny
	lda     (ptr1),y
	tax
	dey
	lda     (ptr1),y
	jsr     _oam_meta_spr
;
; if (story_step > 2) {
;
L0023:	lda     _story_step
	cmp     #$03
	bcc     L000D
;
; if (story_step < 5) {
;
	cmp     #$05
	bcs     L0024
;
; oam_meta_spr(120, 72, hero_head_down);
;
	jsr     decsp2
	lda     #$78
	ldy     #$01
	sta     (sp),y
	lda     #$48
	dey
	sta     (sp),y
	lda     #<(_hero_head_down)
	ldx     #>(_hero_head_down)
;
; } else {
;
	jmp     L001F
;
; oam_meta_spr(120, 72, hero_head_up);
;
L000D:	jsr     decsp2
	lda     #$78
	ldy     #$01
	sta     (sp),y
	lda     #$48
	dey
	sta     (sp),y
	lda     #<(_hero_head_up)
	ldx     #>(_hero_head_up)
L001F:	jsr     _oam_meta_spr
;
; set_animation_info(SKULL, skull_animation_index);
;
L0024:	lda     #$04
	jsr     pusha
	lda     #<(_skull_animation_index)
	ldx     #>(_skull_animation_index)
	jsr     _set_animation_info
;
; oam_meta_spr(actors.x[SKULL], actors.y[SKULL], skull_animation[actors.current_frame[SKULL] + param2]);
;
	jsr     decsp2
	lda     _actors+4
	ldy     #$01
	sta     (sp),y
	lda     _actors+16
	dey
	sta     (sp),y
	ldx     #$00
	lda     _actors+220
	clc
	adc     _param2
	bcc     L001C
	inx
L001C:	stx     tmp1
	asl     a
	rol     tmp1
	clc
	adc     #<(_skull_animation)
	sta     ptr1
	lda     tmp1
	adc     #>(_skull_animation)
	sta     ptr1+1
	iny
	lda     (ptr1),y
	tax
	dey
	lda     (ptr1),y
	jmp     _oam_meta_spr
;
; if (actors.state[CROW] == FLYING) {
;
L0025:	lda     _actors+236
	bne     L0026
;
; param1 = CROW;
;
	tax
	lda     #$08
	sta     _param1
;
; actors.x[CROW] += get_x_speed();
;
	jsr     _get_x_speed
	ldx     #$00
	clc
	adc     _actors+8
	sta     _actors+8
;
; actors.y[CROW] += get_y_speed();
;
	jsr     _get_y_speed
	clc
	adc     _actors+20
	sta     _actors+20
;
; if (actors.x[CROW] < 6) {
;
	lda     _actors+8
	cmp     #$06
	bcs     L002A
;
; actors.state[CROW] = SKWAK;
;
	lda     #$01
	sta     _actors+236
;
; actors.y[CROW] = 240;
;
	lda     #$F0
	sta     _actors+20
;
; } else if (actors.y[SKULL] > 120 && actors.y[SKULL] < 132) {
;
	jmp     L002A
L0026:	lda     _actors+16
	cmp     #$79
	bcc     L002A
	cmp     #$84
	bcs     L002A
;
; actors.state[CROW] = SKWAK;  // SKWAK!
;
	lda     #$01
	sta     _actors+236
;
; set_animation_info(CROW, crow_animation_index);
;
L002A:	lda     #$08
	jsr     pusha
	lda     #<(_crow_animation_index)
	ldx     #>(_crow_animation_index)
	jsr     _set_animation_info
;
; oam_meta_spr(actors.x[CROW], actors.y[CROW], crow_animation[actors.current_frame[CROW] + param2]);
;
	jsr     decsp2
	lda     _actors+8
	ldy     #$01
	sta     (sp),y
	lda     _actors+20
	dey
	sta     (sp),y
	ldx     #$00
	lda     _actors+224
	clc
	adc     _param2
	bcc     L001D
	inx
L001D:	stx     tmp1
	asl     a
	rol     tmp1
	clc
	adc     #<(_crow_animation)
	sta     ptr1
	lda     tmp1
	adc     #>(_crow_animation)
	sta     ptr1+1
	iny
	lda     (ptr1),y
	tax
	dey
	lda     (ptr1),y
	jsr     _oam_meta_spr
;
; animate_skeleton();
;
	jsr     _animate_skeleton
;
; set_animation_info(DOOR, door_animation_index);
;
	lda     #$09
	jsr     pusha
	lda     #<(_door_animation_index)
	ldx     #>(_door_animation_index)
	jsr     _set_animation_info
;
; oam_meta_spr(actors.x[DOOR], actors.y[DOOR], door_animation[actors.current_frame[DOOR] + param2]);
;
	jsr     decsp2
	lda     _actors+9
	ldy     #$01
	sta     (sp),y
	lda     _actors+21
	dey
	sta     (sp),y
	ldx     #$00
	lda     _actors+225
	clc
	adc     _param2
	bcc     L001E
	inx
L001E:	stx     tmp1
	asl     a
	rol     tmp1
	clc
	adc     #<(_door_animation)
	sta     ptr1
	lda     tmp1
	adc     #>(_door_animation)
	sta     ptr1+1
	iny
	lda     (ptr1),y
	tax
	dey
	lda     (ptr1),y
	jsr     _oam_meta_spr
;
; oam_meta_spr(219, 61, tree);
;
	jsr     decsp2
	lda     #$DB
	ldy     #$01
	sta     (sp),y
	lda     #$3D
	dey
	sta     (sp),y
	lda     #<(_tree)
	ldx     #>(_tree)
	jmp     _oam_meta_spr

.endproc

; ---------------------------------------------------------------
; void __near__ load_black_level (void)
; ---------------------------------------------------------------

.segment	"CODE"

.proc	_load_black_level: near

.segment	"CODE"

;
; ppu_off();
;
	jsr     _ppu_off
;
; set_scroll_x(0x0000);
;
	ldx     #$00
	txa
	jsr     _set_scroll_x
;
; vram_adr(NAMETABLE_A);
;
	ldx     #$20
	lda     #$00
	jsr     _vram_adr
;
; vram_unrle(black_level);
;
	lda     #<(_black_level)
	ldx     #>(_black_level)
	jsr     _vram_unrle
;
; ppu_on_all();
;
	jmp     _ppu_on_all

.endproc

; ---------------------------------------------------------------
; void __near__ load_level (void)
; ---------------------------------------------------------------

.segment	"CODE"

.proc	_load_level: near

.segment	"CODE"

;
; ppu_off();
;
	jsr     _ppu_off
;
; set_scroll_x(0x0000);
;
	ldx     #$00
	txa
	jsr     _set_scroll_x
;
; vram_adr(NAMETABLE_A);
;
	ldx     #$20
	lda     #$00
	jsr     _vram_adr
;
; vram_unrle(levels.nametable[current_level]);
;
	ldx     #$00
	lda     _current_level
	asl     a
	bcc     L0017
	inx
	clc
L0017:	adc     #<(_levels)
	sta     ptr1
	txa
	adc     #>(_levels)
	sta     ptr1+1
	ldy     #$01
	lda     (ptr1),y
	tax
	dey
	lda     (ptr1),y
	jsr     _vram_unrle
;
; memcpy(c_map, levels.collision_map[current_level], 368);
;
	lda     #<(_c_map)
	ldx     #>(_c_map)
	jsr     pushax
	ldx     #$00
	lda     _current_level
	asl     a
	bcc     L0018
	inx
	clc
L0018:	adc     #<(_levels+4)
	sta     ptr1
	txa
	adc     #>(_levels+4)
	sta     ptr1+1
	ldy     #$01
	lda     (ptr1),y
	tax
	dey
	lda     (ptr1),y
	jsr     pushax
	ldx     #$01
	lda     #$70
	jsr     _memcpy
;
; pal_bg(levels.background_palette[current_level]);
;
	ldx     #$00
	lda     _current_level
	asl     a
	bcc     L0019
	inx
	clc
L0019:	adc     #<(_levels+8)
	sta     ptr1
	txa
	adc     #>(_levels+8)
	sta     ptr1+1
	ldy     #$01
	lda     (ptr1),y
	tax
	dey
	lda     (ptr1),y
	jsr     _pal_bg
;
; pal_spr(levels.sprite_palette[current_level]);
;
	ldx     #$00
	lda     _current_level
	asl     a
	bcc     L001A
	inx
	clc
L001A:	adc     #<(_levels+12)
	sta     ptr1
	txa
	adc     #>(_levels+12)
	sta     ptr1+1
	ldy     #$01
	lda     (ptr1),y
	tax
	dey
	lda     (ptr1),y
	jsr     _pal_spr
;
; brick_counter = 0;
;
	lda     #$00
	sta     _brick_counter
;
; tombstone_count = 0;
;
	sta     _tombstone_count
;
; for (collision_index = 0; collision_index < 368; ++collision_index) {
;
	sta     _collision_index
	sta     _collision_index+1
L0002:	lda     _collision_index
	cmp     #$70
	lda     _collision_index+1
	sbc     #$01
	bvc     L0006
	eor     #$80
L0006:	bpl     L0003
;
; temp = c_map[collision_index] >> 4;
;
	lda     _collision_index
	sta     ptr1
	lda     _collision_index+1
	clc
	adc     #>(_c_map)
	sta     ptr1+1
	ldy     #<(_c_map)
	lda     (ptr1),y
	lsr     a
	lsr     a
	lsr     a
	lsr     a
	sta     _temp
;
; if (temp == 7) {
;
	cmp     #$07
	bne     L001B
;
; ++tombstone_count;
;
	inc     _tombstone_count
;
; } else {
;
	jmp     L0004
;
; if (temp == 3) {
;
L001B:	lda     _temp
	cmp     #$03
;
; } else {
;
	beq     L001D
;
; if (temp == 5) {
;
	cmp     #$05
	bne     L000C
;
; ++brick_counter;
;
	inc     _brick_counter
;
; temp = c_map[collision_index] & 0x0F;
;
L000C:	lda     _collision_index
	sta     ptr1
	lda     _collision_index+1
	clc
	adc     #>(_c_map)
	sta     ptr1+1
	ldy     #<(_c_map)
	lda     (ptr1),y
	and     #$0F
	sta     _temp
;
; if (temp == 4 || temp == 5) {
;
	cmp     #$04
	beq     L001D
	lda     _temp
	cmp     #$05
	bne     L0004
;
; ++brick_counter;
;
L001D:	inc     _brick_counter
;
; for (collision_index = 0; collision_index < 368; ++collision_index) {
;
L0004:	inc     _collision_index
	bne     L0002
	inc     _collision_index+1
	jmp     L0002
;
; if (tombstone_count){
;
L0003:	lda     _tombstone_count
	beq     L001F
;
; brick_counter = tombstone_count >> 1;  // Divided by 2 because we only count the first 7 in the 0x77
;
	lsr     a
	sta     _brick_counter
;
; banked_call(0, init_level_specifics);
;
	lda     #$00
L001F:	jsr     pusha
	lda     #<(_init_level_specifics)
	ldx     #>(_init_level_specifics)
	jsr     _banked_call
;
; banked_call(0, init_skull);
;
	lda     #$00
	jsr     pusha
	lda     #<(_init_skull)
	ldx     #>(_init_skull)
	jsr     _banked_call
;
; if (game_state == MAIN) {
;
	lda     _game_state
	cmp     #$01
	bne     L0011
;
; show_HUD();
;
	jsr     _show_HUD
;
; skull_launched = FALSE;
;
	lda     #$00
	sta     _skull_launched
;
; ppu_on_all();
;
L0011:	jmp     _ppu_on_all

.endproc

; ---------------------------------------------------------------
; void __near__ load_title_screen (void)
; ---------------------------------------------------------------

.segment	"CODE"

.proc	_load_title_screen: near

.segment	"CODE"

;
; pal_bg((const char *)pal_forest_bg);
;
	lda     #<(_pal_forest_bg)
	ldx     #>(_pal_forest_bg)
	jsr     _pal_bg
;
; pal_spr(pal_cemetery_spr);
;
	lda     #<(_pal_cemetery_spr)
	ldx     #>(_pal_cemetery_spr)
	jsr     _pal_spr
;
; vram_adr(NAMETABLE_A);
;
	ldx     #$20
	lda     #$00
	jsr     _vram_adr
;
; vram_unrle(title_screen);
;
	lda     #<(_title_screen)
	ldx     #>(_title_screen)
	jsr     _vram_unrle
;
; game_state = TITLE;
;
	lda     #$00
	sta     _game_state
;
; }
;
	rts

.endproc

; ---------------------------------------------------------------
; void __near__ load_map (void)
; ---------------------------------------------------------------

.segment	"CODE"

.proc	_load_map: near

.segment	"CODE"

;
; vram_adr(NAMETABLE_B);
;
	ldx     #$24
	lda     #$00
	jsr     _vram_adr
;
; vram_unrle(map);
;
	lda     #<(_map)
	ldx     #>(_map)
	jmp     _vram_unrle

.endproc

; ---------------------------------------------------------------
; void __near__ remove_brick (char tile_type)
; ---------------------------------------------------------------

.segment	"CODE"

.proc	_remove_brick: near

.segment	"CODE"

;
; void remove_brick(char tile_type) {
;
	jsr     pusha
;
; one_vram_buffer(tile_type, backup_nt_index);
;
	ldy     #$00
	lda     (sp),y
	jsr     pusha
	lda     _backup_nt_index
	ldx     _backup_nt_index+1
	jsr     _one_vram_buffer
;
; c_map[backup_col_index] &= backup_nt_index % 2 ? 0b11110000 : 0b00001111;
;
	lda     _backup_col_index
	clc
	adc     #<(_c_map)
	tay
	lda     _backup_col_index+1
	adc     #>(_c_map)
	tax
	tya
	jsr     pushax
	sta     ptr1
	stx     ptr1+1
	ldx     #$00
	lda     (ptr1,x)
	jsr     pusha0
	lda     _backup_nt_index
	ldx     _backup_nt_index+1
	jsr     pushax
	ldx     #$00
	lda     #$02
	jsr     tosmoda0
	stx     tmp1
	ora     tmp1
	beq     L0002
	lda     #$F0
	jmp     L0003
L0002:	lda     #$0F
L0003:	jsr     tosanda0
	ldy     #$00
	jsr     staspidx
;
; }
;
	jmp     incsp1

.endproc

; ---------------------------------------------------------------
; void __near__ hit_brick (char tile_type)
; ---------------------------------------------------------------

.segment	"CODE"

.proc	_hit_brick: near

.segment	"CODE"

;
; void hit_brick(char tile_type) {
;
	jsr     pusha
;
; remove_brick(tile_type);
;
	ldy     #$00
	lda     (sp),y
	jsr     _remove_brick
;
; }
;
	jmp     incsp1

.endproc

; ---------------------------------------------------------------
; void __near__ add_x_speed (unsigned char val)
; ---------------------------------------------------------------

.segment	"CODE"

.proc	_add_x_speed: near

.segment	"CODE"

;
; void add_x_speed(unsigned char val) {
;
	jsr     pusha
;
; temp = actors.xSpeed[param1];
;
	ldy     _param1
	lda     _actors+96,y
	sta     _temp
;
; actors.xSpeed[param1] += val;
;
	lda     #<(_actors+96)
	ldx     #>(_actors+96)
	clc
	adc     _param1
	bcc     L0003
	inx
L0003:	sta     sreg
	stx     sreg+1
	sta     ptr1
	stx     ptr1+1
	ldy     #$00
	lda     (ptr1),y
	sta     ptr1
	lda     (sp),y
	clc
	adc     ptr1
	sta     (sreg),y
;
; if (actors.xSpeed[param1] > actors.maxSpeed[param1] || actors.xSpeed[param1] < temp) {
;
	ldy     _param1
	lda     _actors+96,y
	ldy     _param1
	cmp     _actors+180,y
	beq     L000D
	bcs     L000E
L000D:	ldy     _param1
	lda     _actors+96,y
	cmp     _temp
	bcs     L0004
;
; actors.xSpeed[param1] = actors.maxSpeed[param1];
;
L000E:	lda     #<(_actors+96)
	ldx     #>(_actors+96)
	clc
	adc     _param1
	bcc     L000A
	inx
L000A:	sta     ptr1
	stx     ptr1+1
	ldy     _param1
	lda     _actors+180,y
	ldy     #$00
	sta     (ptr1),y
;
; }
;
L0004:	jmp     incsp1

.endproc

; ---------------------------------------------------------------
; void __near__ subtract_x_speed (unsigned char val)
; ---------------------------------------------------------------

.segment	"CODE"

.proc	_subtract_x_speed: near

.segment	"CODE"

;
; void subtract_x_speed(unsigned char val) {
;
	jsr     pusha
;
; temp = actors.xSpeed[param1];
;
	ldy     _param1
	lda     _actors+96,y
	sta     _temp
;
; actors.xSpeed[param1] -= val;
;
	lda     #<(_actors+96)
	ldx     #>(_actors+96)
	clc
	adc     _param1
	bcc     L0003
	inx
L0003:	sta     sreg
	stx     sreg+1
	sta     ptr1
	stx     ptr1+1
	ldy     #$00
	lda     (ptr1),y
	sec
	sbc     (sp),y
	sta     (sreg),y
;
; if (actors.xSpeed[param1] < actors.minSpeed[param1] || actors.xSpeed[param1] > temp) {
;
	ldy     _param1
	lda     _actors+96,y
	ldy     _param1
	cmp     _actors+168,y
	bcc     L000E
	lda     _actors+96,y
	cmp     _temp
	beq     L0004
	bcc     L0004
;
; actors.xSpeed[param1] = actors.minSpeed[param1];
;
L000E:	lda     #<(_actors+96)
	ldx     #>(_actors+96)
	clc
	adc     _param1
	bcc     L000A
	inx
L000A:	sta     ptr1
	stx     ptr1+1
	ldy     _param1
	lda     _actors+168,y
	ldy     #$00
	sta     (ptr1),y
;
; }
;
L0004:	jmp     incsp1

.endproc

; ---------------------------------------------------------------
; void __near__ add_y_speed (unsigned char val)
; ---------------------------------------------------------------

.segment	"CODE"

.proc	_add_y_speed: near

.segment	"CODE"

;
; void add_y_speed(unsigned char val) {
;
	jsr     pusha
;
; temp = actors.ySpeed[param1];
;
	ldy     _param1
	lda     _actors+108,y
	sta     _temp
;
; actors.ySpeed[param1] += val;
;
	lda     #<(_actors+108)
	ldx     #>(_actors+108)
	clc
	adc     _param1
	bcc     L0003
	inx
L0003:	sta     sreg
	stx     sreg+1
	sta     ptr1
	stx     ptr1+1
	ldy     #$00
	lda     (ptr1),y
	sta     ptr1
	lda     (sp),y
	clc
	adc     ptr1
	sta     (sreg),y
;
; if (actors.ySpeed[param1] > actors.maxSpeed[param1] || actors.ySpeed[param1] < temp) {
;
	ldy     _param1
	lda     _actors+108,y
	ldy     _param1
	cmp     _actors+180,y
	beq     L000D
	bcs     L000E
L000D:	ldy     _param1
	lda     _actors+108,y
	cmp     _temp
	bcs     L0004
;
; actors.ySpeed[param1] = actors.maxSpeed[param1];
;
L000E:	lda     #<(_actors+108)
	ldx     #>(_actors+108)
	clc
	adc     _param1
	bcc     L000A
	inx
L000A:	sta     ptr1
	stx     ptr1+1
	ldy     _param1
	lda     _actors+180,y
	ldy     #$00
	sta     (ptr1),y
;
; }
;
L0004:	jmp     incsp1

.endproc

; ---------------------------------------------------------------
; void __near__ subtract_y_speed (unsigned char val)
; ---------------------------------------------------------------

.segment	"CODE"

.proc	_subtract_y_speed: near

.segment	"CODE"

;
; void subtract_y_speed(unsigned char val) {
;
	jsr     pusha
;
; temp = actors.ySpeed[param1];
;
	ldy     _param1
	lda     _actors+108,y
	sta     _temp
;
; actors.ySpeed[param1] -= val;
;
	lda     #<(_actors+108)
	ldx     #>(_actors+108)
	clc
	adc     _param1
	bcc     L0003
	inx
L0003:	sta     sreg
	stx     sreg+1
	sta     ptr1
	stx     ptr1+1
	ldy     #$00
	lda     (ptr1),y
	sec
	sbc     (sp),y
	sta     (sreg),y
;
; if (actors.ySpeed[param1] < actors.minSpeed[param1] || actors.ySpeed[param1] > temp) {
;
	ldy     _param1
	lda     _actors+108,y
	ldy     _param1
	cmp     _actors+168,y
	bcc     L000E
	lda     _actors+108,y
	cmp     _temp
	beq     L0004
	bcc     L0004
;
; actors.ySpeed[param1] = actors.minSpeed[param1];
;
L000E:	lda     #<(_actors+108)
	ldx     #>(_actors+108)
	clc
	adc     _param1
	bcc     L000A
	inx
L000A:	sta     ptr1
	stx     ptr1+1
	ldy     _param1
	lda     _actors+168,y
	ldy     #$00
	sta     (ptr1),y
;
; }
;
L0004:	jmp     incsp1

.endproc

; ---------------------------------------------------------------
; char __near__ get_collision_type (void)
; ---------------------------------------------------------------

.segment	"CODE"

.proc	_get_collision_type: near

.segment	"CODE"

;
; collision_index = (temp_x_col >> 4) + (((temp_y_col >> 3) - 5) * 16);
;
	lda     _temp_x_col
	lsr     a
	lsr     a
	lsr     a
	lsr     a
	jsr     pusha0
	lda     _temp_y_col
	lsr     a
	lsr     a
	lsr     a
	sec
	sbc     #$05
	bcs     L0002
	ldx     #$FF
L0002:	jsr     aslax4
	jsr     tosaddax
	sta     _collision_index
	stx     _collision_index+1
;
; return (temp_x_col >> 3) % 2 ? c_map[collision_index] & 0x0F : c_map[collision_index] >> 4;
;
	lda     _temp_x_col
	lsr     a
	lsr     a
	lsr     a
	jsr     pusha0
	lda     #$02
	jsr     tosmoda0
	stx     tmp1
	ora     tmp1
	beq     L0003
	lda     _collision_index
	sta     ptr1
	lda     _collision_index+1
	clc
	adc     #>(_c_map)
	sta     ptr1+1
	ldy     #<(_c_map)
	lda     (ptr1),y
	ldx     #$00
	and     #$0F
	rts
L0003:	lda     _collision_index
	sta     ptr1
	lda     _collision_index+1
	clc
	adc     #>(_c_map)
	sta     ptr1+1
	ldy     #<(_c_map)
	lda     (ptr1),y
	lsr     a
	lsr     a
	lsr     a
	lsr     a
	ldx     #$00
;
; }
;
	rts

.endproc

; ---------------------------------------------------------------
; char __near__ set_collision_data (void)
; ---------------------------------------------------------------

.segment	"CODE"

.proc	_set_collision_data: near

.segment	"CODE"

;
; backup_nt_index = NTADR_A((temp_x_col >> 3), (temp_y_col >> 3));
;
	ldx     #$00
	lda     _temp_y_col
	lsr     a
	lsr     a
	lsr     a
	jsr     aslax4
	stx     tmp1
	asl     a
	rol     tmp1
	ldx     tmp1
	sta     ptr1
	stx     ptr1+1
	lda     _temp_x_col
	lsr     a
	lsr     a
	lsr     a
	ora     ptr1
	sta     _backup_nt_index
	lda     ptr1+1
	ora     #$20
	sta     _backup_nt_index+1
;
; backup_col_type = get_collision_type();
;
	jsr     _get_collision_type
	sta     _backup_col_type
;
; backup_col_index = collision_index;
;
	lda     _collision_index+1
	sta     _backup_col_index+1
	lda     _collision_index
	sta     _backup_col_index
;
; return backup_col_type;
;
	ldx     #$00
	lda     _backup_col_type
;
; }
;
	rts

.endproc

; ---------------------------------------------------------------
; void __near__ do_skull_tile_collision (void)
; ---------------------------------------------------------------

.segment	"CODE"

.proc	_do_skull_tile_collision: near

.segment	"CODE"

;
; switch (backup_col_type) {
;
	lda     _backup_col_type
;
; }
;
	cmp     #$01
	bne     L002F
;
; }
;
	rts
;
; }
;
L002F:	cmp     #$02
	beq     L0005
	cmp     #$03
	beq     L0028
	cmp     #$04
	bne     L0030
;
; }
;
	rts
;
; }
;
L0030:	cmp     #$05
	jeq     L0029
	cmp     #$06
	jeq     L002A
	cmp     #$07
	jeq     L000F
	cmp     #$08
	bne     L0031
;
; }
;
	rts
;
; }
;
L0031:	cmp     #$09
	bne     L0032
;
; }
;
	rts
;
; }
;
L0032:	cmp     #$0A
	bne     L0033
;
; }
;
	rts
;
; }
;
L0033:	cmp     #$0B
	bne     L0034
;
; }
;
	rts
;
; }
;
L0034:	cmp     #$0C
	bne     L0035
;
; }
;
	rts
;
; }
;
L0035:	cmp     #$0D
	bne     L0036
;
; }
;
	rts
;
; }
;
L0036:	cmp     #$0E
	bne     L0037
;
; }
;
	rts
;
; }
;
L0037:	cmp     #$0F
	bne     L0038
;
; }
;
	rts
;
; }
;
L0038:	rts
;
; if (p1_health) {
;
L0005:	lda     _p1_health
	beq     L0006
;
; --p1_health;
;
	dec     _p1_health
;
; update_health();
;
L0006:	jmp     _update_health
;
; remove_brick(TILE_BACK);
;
L0028:	lda     #$10
	jsr     _remove_brick
;
; backup_nt_index % 2 ? --backup_nt_index : ++backup_nt_index;
;
	lda     _backup_nt_index
	ldx     _backup_nt_index+1
	jsr     pushax
	ldx     #$00
	lda     #$02
	jsr     tosmoda0
	stx     tmp1
	ora     tmp1
	beq     L0008
	lda     _backup_nt_index
	sec
	sbc     #$01
	sta     _backup_nt_index
	bcs     L0027
	dec     _backup_nt_index+1
	jmp     L0027
L0008:	inc     _backup_nt_index
	bne     L0027
	inc     _backup_nt_index+1
;
; --brick_counter;
;
L0027:	dec     _brick_counter
;
; hit_brick(TILE_BACK);
;
	lda     #$10
	jsr     _hit_brick
;
; add_xp(1, HUNDREDS);
;
	lda     #$01
	jsr     pusha
	lda     #$05
	jmp     _add_xp
;
; hit_brick(0x11);
;
L0029:	lda     #$11
	jsr     _hit_brick
;
; add_xp(5, TENS);
;
	lda     #$05
	jsr     pusha
	lda     #$06
	jsr     _add_xp
;
; --brick_counter;
;
	dec     _brick_counter
;
; break;
;
	rts
;
; hit_brick(TILE_BACK_GRASS);
;
L002A:	lda     #$23
	jmp     _hit_brick
;
; c_map[backup_col_index] = 0x11;
;
L000F:	lda     _backup_col_index
	clc
	adc     #<(_c_map)
	tay
	lda     _backup_col_index+1
	adc     #>(_c_map)
	tax
	tya
	jsr     pushax
	lda     #$11
	ldy     #$00
	jsr     staspidx
;
; temp = 0b01010101;
;
	lda     #$55
	sta     _temp
;
; if (((temp_y_col >> 3) - 5) % 2) {
;
	ldx     #$00
	lda     _temp_y_col
	lsr     a
	lsr     a
	lsr     a
	sec
	sbc     #$05
	bcs     L0011
	dex
L0011:	jsr     pushax
	ldx     #$00
	lda     #$02
	jsr     tosmoda0
	stx     tmp1
	ora     tmp1
	beq     L0010
;
; if (backup_col_index == 182 || backup_col_index == 185) {
;
	lda     _backup_col_index+1
	bne     L002B
	lda     _backup_col_index
	cmp     #$B6
	beq     L0014
L002B:	lda     _backup_col_index+1
	bne     L0012
	lda     _backup_col_index
	cmp     #$B9
	bne     L0012
;
; temp = 0b10100101;
;
L0014:	lda     #$A5
	sta     _temp
;
; backup_col_index += 16;
;
L0012:	lda     #$10
	clc
	adc     _backup_col_index
	sta     _backup_col_index
	bcc     L001E
	inc     _backup_col_index+1
;
; } else {
;
	jmp     L001E
;
; if (backup_col_index == 198 || backup_col_index == 201) {
;
L0010:	lda     _backup_col_index+1
	bne     L002D
	lda     _backup_col_index
	cmp     #$C6
	beq     L001B
L002D:	lda     _backup_col_index+1
	bne     L0019
	lda     _backup_col_index
	cmp     #$C9
	bne     L0019
;
; temp = 0b10100101;
;
L001B:	lda     #$A5
	sta     _temp
;
; backup_col_index -= 16;
;
L0019:	lda     _backup_col_index
	sec
	sbc     #$10
	sta     _backup_col_index
	bcs     L001E
	dec     _backup_col_index+1
;
; c_map[backup_col_index] = 0x11;
;
L001E:	lda     _backup_col_index
	clc
	adc     #<(_c_map)
	sta     ptr1
	lda     _backup_col_index+1
	adc     #>(_c_map)
	sta     ptr1+1
	lda     #$11
	ldy     #$00
	sta     (ptr1),y
;
; one_vram_buffer(temp, (backup_nt_index & 0x2C00) | 0x3C0 | ((backup_nt_index >> 4) & 0x38) | ((backup_nt_index >> 2) & 0x07));
;
	lda     _temp
	jsr     pusha
	lda     _backup_nt_index+1
	and     #$2C
	tax
	lda     #$C0
	sta     ptr1
	txa
	ora     #$03
	sta     ptr1+1
	lda     _backup_nt_index
	ldx     _backup_nt_index+1
	jsr     asrax4
	and     #$38
	ora     ptr1
	sta     ptr1
	lda     ptr1+1
	sta     ptr1+1
	lda     _backup_nt_index
	ldx     _backup_nt_index+1
	jsr     asrax2
	and     #$07
	ora     ptr1
	ldx     ptr1+1
	jsr     _one_vram_buffer
;
; --brick_counter;
;
	dec     _brick_counter
;
; break;
;
	rts

.endproc

; ---------------------------------------------------------------
; char __near__ skull_was_beside (void)
; ---------------------------------------------------------------

.segment	"CODE"

.proc	_skull_was_beside: near

.segment	"CODE"

;
; return actors.x[SKULL] + 1 > actors.x[pad_index] + actors.width[pad_index] + actors.bbox_x[pad_index] ||
;
	ldx     #$00
	lda     _actors+4
	clc
	adc     #$01
	bcc     L0002
	inx
L0002:	jsr     pushax
	ldy     _pad_index
	ldx     #$00
	lda     _actors+24,y
	clc
	ldy     _pad_index
	adc     _actors,y
	bcc     L000B
	inx
L000B:	sta     ptr1
	stx     ptr1+1
	ldy     _pad_index
	lda     _actors+48,y
	clc
	adc     ptr1
	ldx     ptr1+1
	bcc     L000C
	inx
L000C:	jsr     tosicmp
	beq     L000E
	bpl     L0006
;
; actors.x[SKULL] + 7 < actors.x[pad_index] + actors.bbox_x[pad_index];
;
L000E:	ldx     #$00
	lda     _actors+4
	clc
	adc     #$07
	bcc     L0007
	inx
L0007:	jsr     pushax
	ldy     _pad_index
	ldx     #$00
	lda     _actors+48,y
	clc
	ldy     _pad_index
	adc     _actors,y
	bcc     L000D
	inx
L000D:	jsr     tosicmp
	bmi     L0006
	ldx     #$00
	txa
	rts
L0006:	lda     #$01
	ldx     #$00
;
; }
;
	rts

.endproc

; ---------------------------------------------------------------
; char __near__ skull_was_above (void)
; ---------------------------------------------------------------

.segment	"CODE"

.proc	_skull_was_above: near

.segment	"CODE"

;
; return actors.y[SKULL] + 1 > actors.y[pad_index] + actors.height[pad_index] + actors.bbox_y[pad_index] ||
;
	ldx     #$00
	lda     _actors+16
	clc
	adc     #$01
	bcc     L0002
	inx
L0002:	jsr     pushax
	ldy     _pad_index
	ldx     #$00
	lda     _actors+36,y
	clc
	ldy     _pad_index
	adc     _actors+12,y
	bcc     L000B
	inx
L000B:	sta     ptr1
	stx     ptr1+1
	ldy     _pad_index
	lda     _actors+60,y
	clc
	adc     ptr1
	ldx     ptr1+1
	bcc     L000C
	inx
L000C:	jsr     tosicmp
	beq     L000E
	bpl     L0006
;
; actors.y[SKULL] + 7 < actors.y[pad_index] + actors.bbox_y[pad_index];
;
L000E:	ldx     #$00
	lda     _actors+16
	clc
	adc     #$07
	bcc     L0007
	inx
L0007:	jsr     pushax
	ldy     _pad_index
	ldx     #$00
	lda     _actors+60,y
	clc
	ldy     _pad_index
	adc     _actors+12,y
	bcc     L000D
	inx
L000D:	jsr     tosicmp
	bmi     L0006
	ldx     #$00
	txa
	rts
L0006:	lda     #$01
	ldx     #$00
;
; }
;
	rts

.endproc

; ---------------------------------------------------------------
; char __near__ is_skull_collision_paddle (void)
; ---------------------------------------------------------------

.segment	"CODE"

.proc	_is_skull_collision_paddle: near

.segment	"CODE"

;
; return (temp_x < actors.x[pad_index] + actors.width[pad_index] + actors.bbox_x[pad_index] &&
;
	lda     _temp_x
	jsr     pusha0
	ldy     _pad_index
	lda     _actors+24,y
	clc
	ldy     _pad_index
	adc     _actors,y
	bcc     L0011
	inx
L0011:	sta     ptr1
	stx     ptr1+1
	ldy     _pad_index
	lda     _actors+48,y
	clc
	adc     ptr1
	ldx     ptr1+1
	bcc     L0012
	inx
L0012:	jsr     tosicmp
	bpl     L0005
;
; temp_x + actors.width[SKULL] > actors.x[pad_index] + actors.bbox_x[pad_index] &&
;
	ldx     #$00
	lda     _temp_x
	clc
	adc     _actors+28
	bcc     L000F
	inx
L000F:	jsr     pushax
	ldy     _pad_index
	ldx     #$00
	lda     _actors+48,y
	clc
	ldy     _pad_index
	adc     _actors,y
	bcc     L0013
	inx
L0013:	jsr     tosicmp
	bmi     L0005
	beq     L0005
;
; temp_y < actors.y[pad_index] + actors.height[pad_index] + actors.bbox_y[pad_index] &&
;
	lda     _temp_y
	jsr     pusha0
	ldy     _pad_index
	lda     _actors+36,y
	clc
	ldy     _pad_index
	adc     _actors+12,y
	bcc     L0014
	inx
L0014:	sta     ptr1
	stx     ptr1+1
	ldy     _pad_index
	lda     _actors+60,y
	clc
	adc     ptr1
	ldx     ptr1+1
	bcc     L0015
	inx
L0015:	jsr     tosicmp
	bpl     L0005
;
; temp_y + actors.height[SKULL] > actors.y[pad_index] + actors.bbox_y[pad_index]);
;
	ldx     #$00
	lda     _temp_y
	clc
	adc     _actors+40
	bcc     L0010
	inx
L0010:	jsr     pushax
	ldy     _pad_index
	ldx     #$00
	lda     _actors+60,y
	clc
	ldy     _pad_index
	adc     _actors+12,y
	bcc     L0016
	inx
L0016:	jsr     tosicmp
	beq     L0005
	bpl     L000D
L0005:	ldx     #$00
	txa
	rts
L000D:	lda     #$01
	ldx     #$00
;
; }
;
	rts

.endproc

; ---------------------------------------------------------------
; char __near__ is_paddle_collision_skull (void)
; ---------------------------------------------------------------

.segment	"CODE"

.proc	_is_paddle_collision_skull: near

.segment	"CODE"

;
; return (actors.x[SKULL] + 7 > temp_x_col + actors.bbox_x[pad_index] &&
;
	ldx     #$00
	lda     _actors+4
	clc
	adc     #$07
	bcc     L0002
	inx
L0002:	jsr     pushax
	ldy     _pad_index
	ldx     #$00
	lda     _actors+48,y
	clc
	adc     _temp_x_col
	bcc     L000F
	inx
L000F:	jsr     tosicmp
	jmi     L0004
	jeq     L0004
;
; actors.y[SKULL] + 7 > temp_y_col + actors.bbox_y[pad_index] &&
;
	ldx     #$00
	lda     _actors+16
	clc
	adc     #$07
	bcc     L0005
	inx
L0005:	jsr     pushax
	ldy     _pad_index
	ldx     #$00
	lda     _actors+60,y
	clc
	adc     _temp_y_col
	bcc     L0010
	inx
L0010:	jsr     tosicmp
	bmi     L0004
	beq     L0004
;
; actors.x[SKULL] + 1 < temp_x_col + actors.width[pad_index] + actors.bbox_x[pad_index] &&
;
	ldx     #$00
	lda     _actors+4
	clc
	adc     #$01
	bcc     L0007
	inx
L0007:	jsr     pushax
	ldy     _pad_index
	ldx     #$00
	lda     _actors+24,y
	clc
	adc     _temp_x_col
	bcc     L0011
	inx
L0011:	sta     ptr1
	stx     ptr1+1
	ldy     _pad_index
	lda     _actors+48,y
	clc
	adc     ptr1
	ldx     ptr1+1
	bcc     L0012
	inx
L0012:	jsr     tosicmp
	bpl     L0004
;
; actors.y[SKULL] + 1 < temp_y_col + actors.height[pad_index] + actors.bbox_y[pad_index]);
;
	ldx     #$00
	lda     _actors+16
	clc
	adc     #$01
	bcc     L000A
	inx
L000A:	jsr     pushax
	ldy     _pad_index
	ldx     #$00
	lda     _actors+36,y
	clc
	adc     _temp_y_col
	bcc     L0013
	inx
L0013:	sta     ptr1
	stx     ptr1+1
	ldy     _pad_index
	lda     _actors+60,y
	clc
	adc     ptr1
	ldx     ptr1+1
	bcc     L0014
	inx
L0014:	jsr     tosicmp
	bmi     L000D
L0004:	ldx     #$00
	txa
	rts
L000D:	lda     #$01
	ldx     #$00
;
; }
;
	rts

.endproc

; ---------------------------------------------------------------
; void __near__ check_enemy_collision (void)
; ---------------------------------------------------------------

.segment	"CODE"

.proc	_check_enemy_collision: near

.segment	"CODE"

;
; for (i = 6; i < 6 + enemy_count; ++i) {
;
	lda     #$06
	sta     _i
L001D:	lda     _i
	jsr     pusha0
	lda     _enemy_count
	clc
	adc     #$06
	bcc     L0006
	ldx     #$01
L0006:	jsr     tosicmp
	bpl     L0003
;
; if (actors.state[i] != DEAD) {
;
	ldy     _i
	lda     _actors+228,y
	cmp     #$04
	beq     L001F
;
; pad_index = i;
;
	lda     _i
	sta     _pad_index
;
; if (actors.state[i] != DYING && is_skull_collision_paddle()) {
;
	ldy     _i
	lda     _actors+228,y
	cmp     #$03
	beq     L001F
	jsr     _is_skull_collision_paddle
	tax
	beq     L001F
;
; switch (actors.type[i]) {
;
	ldy     _i
	lda     _actors+240,y
;
; }
;
	beq     L0011
	cmp     #$01
	beq     L0015
	jmp     L001F
;
; actors.counter[i] = 0;
;
L0011:	ldy     _i
	sta     _actors+192,y
;
; actors.state[i] = FLYING;
;
	ldy     _i
	sta     _actors+228,y
;
; actors.animation_delay[i] = 8;
;
	ldy     _i
	lda     #$08
	sta     _actors+204,y
;
; break;
;
	jmp     L001F
;
; actors.counter[i] = 0;
;
L0015:	ldy     _i
	lda     #$00
	sta     _actors+192,y
;
; actors.current_frame[i] = 0;
;
	ldy     _i
	sta     _actors+216,y
;
; actors.state[i] = DYING;
;
	ldy     _i
	lda     #$03
	sta     _actors+228,y
;
; actors.xDir[SKULL] = -actors.xDir[SKULL];
;
	lda     _actors+76
	eor     #$FF
	clc
	adc     #$01
	cmp     #$80
	sta     _actors+76
;
; actors.yDir[SKULL] = -actors.yDir[SKULL];
;
	lda     _actors+88
	eor     #$FF
	clc
	adc     #$01
	cmp     #$80
	sta     _actors+88
;
; for (i = 6; i < 6 + enemy_count; ++i) {
;
L001F:	inc     _i
	jmp     L001D
;
; }
;
L0003:	rts

.endproc

; ---------------------------------------------------------------
; void __near__ move_horizontal_paddle (void)
; ---------------------------------------------------------------

.segment	"CODE"

.proc	_move_horizontal_paddle: near

.segment	"CODE"

;
; temp_x_col = actors.x[pad_index];
;
	ldy     _pad_index
	lda     _actors,y
	sta     _temp_x_col
;
; temp_y_col = actors.y[pad_index];
;
	ldy     _pad_index
	lda     _actors+12,y
	sta     _temp_y_col
;
; if (actors.xDir[pad_index] == LEFT) {
;
	lda     #<(_actors+72)
	ldx     #>(_actors+72)
	clc
	adc     _pad_index
	bcc     L0005
	inx
L0005:	ldy     #$00
	jsr     ldaidx
	cmp     #$FF
	bne     L0004
;
; --temp_x_col;
;
	dec     _temp_x_col
;
; if (get_collision_type()) {
;
	jsr     _get_collision_type
	tax
	beq     L000B
;
; ++temp_x_col;
;
	inc     _temp_x_col
;
; } else {
;
	jmp     L000D
;
; temp_x_col += actors.width[pad_index];
;
L0004:	ldy     _pad_index
	lda     _actors+24,y
	clc
	adc     _temp_x_col
	sta     _temp_x_col
;
; if (get_collision_type()) {
;
	jsr     _get_collision_type
	tax
	beq     L000B
;
; temp_x_col = actors.x[pad_index];
;
	ldy     _pad_index
	lda     _actors,y
;
; } else {
;
	jmp     L0018
;
; temp_x_col = actors.x[pad_index] + get_x_speed();
;
L000B:	ldy     _pad_index
	lda     _actors,y
	jsr     pusha0
	jsr     _get_x_speed
	jsr     tosaddax
L0018:	sta     _temp_x_col
;
; if (is_paddle_collision_skull()) {
;
L000D:	jsr     _is_paddle_collision_skull
	tax
	beq     L000F
;
; if (pad1 & 0b00000011 && skull_was_beside()) {
;
	lda     _pad1
	and     #$03
	beq     L0014
	jsr     _skull_was_beside
	tax
	beq     L0014
;
; actors.xVelocity[SKULL] = 70;
;
	lda     #$46
	sta     _actors+148
;
; } else {
;
	jmp     L0014
;
; actors.x[pad_index] = temp_x_col;
;
L000F:	ldy     _pad_index
	lda     _temp_x_col
	sta     _actors,y
;
; if (actors.xSpeed[pad_index]) {
;
L0014:	ldy     _pad_index
	lda     _actors+96,y
	beq     L0016
;
; subtract_x_speed(16);
;
	lda     #$10
	jmp     _subtract_x_speed
;
; }
;
L0016:	rts

.endproc

; ---------------------------------------------------------------
; void __near__ move_vertical_paddle (void)
; ---------------------------------------------------------------

.segment	"CODE"

.proc	_move_vertical_paddle: near

.segment	"CODE"

;
; temp_x_col = actors.x[pad_index];
;
	ldy     _pad_index
	lda     _actors,y
	sta     _temp_x_col
;
; temp_y_col = actors.y[pad_index];
;
	ldy     _pad_index
	lda     _actors+12,y
	sta     _temp_y_col
;
; if (actors.yDir[pad_index] == UP) {
;
	lda     #<(_actors+84)
	ldx     #>(_actors+84)
	clc
	adc     _pad_index
	bcc     L0005
	inx
L0005:	ldy     #$00
	jsr     ldaidx
	cmp     #$FF
	bne     L0004
;
; --temp_y_col;
;
	dec     _temp_y_col
;
; if (get_collision_type()) {
;
	jsr     _get_collision_type
	tax
	beq     L000B
;
; ++temp_y_col;
;
	inc     _temp_y_col
;
; } else {
;
	jmp     L000D
;
; temp_y_col += actors.height[pad_index];
;
L0004:	ldy     _pad_index
	lda     _actors+36,y
	clc
	adc     _temp_y_col
	sta     _temp_y_col
;
; if (get_collision_type()) {
;
	jsr     _get_collision_type
	tax
	beq     L000B
;
; temp_y_col = actors.y[pad_index];
;
	ldy     _pad_index
	lda     _actors+12,y
;
; } else {
;
	jmp     L0018
;
; temp_y_col = actors.y[pad_index] + get_y_speed();
;
L000B:	ldy     _pad_index
	lda     _actors+12,y
	jsr     pusha0
	jsr     _get_y_speed
	jsr     tosaddax
L0018:	sta     _temp_y_col
;
; if (is_paddle_collision_skull()) {
;
L000D:	jsr     _is_paddle_collision_skull
	tax
	beq     L000F
;
; if ((pad1 & 0b00001100) && skull_was_above()) {
;
	lda     _pad1
	and     #$0C
	beq     L0014
	jsr     _skull_was_above
	tax
	beq     L0014
;
; actors.yVelocity[SKULL] = 70;
;
	lda     #$46
	sta     _actors+160
;
; } else {
;
	jmp     L0014
;
; actors.y[pad_index] = temp_y_col;
;
L000F:	ldy     _pad_index
	lda     _temp_y_col
	sta     _actors+12,y
;
; if (actors.ySpeed[pad_index]) {
;
L0014:	ldy     _pad_index
	lda     _actors+108,y
	beq     L0016
;
; subtract_y_speed(16);
;
	lda     #$10
	jmp     _subtract_y_speed
;
; }
;
L0016:	rts

.endproc

; ---------------------------------------------------------------
; void __near__ check_paddle_collision (void)
; ---------------------------------------------------------------

.segment	"CODE"

.proc	_check_paddle_collision: near

.segment	"CODE"

;
; temp = FALSE;
;
	lda     #$00
	sta     _temp
;
; if (actors.y[SKULL] > 127) {
;
	lda     _actors+16
	cmp     #$80
	bcc     L0053
;
; temp = TRUE;
;
	lda     #$01
	sta     _temp
;
; pad_index = 0;
;
	lda     #$00
;
; } else if (paddle_count > 1) {
;
	jmp     L004B
L0053:	lda     _paddle_count
	cmp     #$02
	bcc     L0004
;
; temp = TRUE;
;
	lda     #$01
	sta     _temp
;
; pad_index = 1;
;
L004B:	sta     _pad_index
;
; if (temp && is_skull_collision_paddle()) {
;
L0004:	lda     _temp
	jeq     L0058
	jsr     _is_skull_collision_paddle
	tax
	jeq     L0058
;
; if (temp_x < actors.x[pad_index] + (actors.width[pad_index] >> 1)) {
;
	lda     _temp_x
	jsr     pusha0
	ldy     _pad_index
	lda     _actors+24,y
	lsr     a
	clc
	ldy     _pad_index
	adc     _actors,y
	bcc     L0045
	inx
L0045:	jsr     tosicmp
	bpl     L0009
;
; if (temp_x <= actors.x[pad_index] + 4) {
;
	lda     _temp_x
	jsr     pusha0
	ldy     _pad_index
	lda     _actors,y
	clc
	adc     #$04
	bcc     L000E
	ldx     #$01
L000E:	jsr     tosicmp
	beq     L004F
	bpl     L000C
;
; actors.xDir[SKULL] = LEFT;
;
L004F:	lda     #$FF
	sta     _actors+76
;
; actors.xSpeed[SKULL] = 140;
;
	lda     #$8C
	sta     _actors+100
;
; actors.ySpeed[SKULL] = 60;
;
	lda     #$3C
;
; } else if (temp_x <= actors.x[pad_index] + 10) {
;
	jmp     L004C
L000C:	lda     _temp_x
	jsr     pusha0
	ldy     _pad_index
	lda     _actors,y
	clc
	adc     #$0A
	bcc     L0012
	ldx     #$01
L0012:	jsr     tosicmp
	beq     L0050
	bpl     L001A
;
; actors.xDir[SKULL] = LEFT;
;
L0050:	lda     #$FF
	sta     _actors+76
;
; actors.xSpeed[SKULL] = 100;
;
	lda     #$64
	sta     _actors+100
;
; } else {
;
	jmp     L004C
;
; if (temp_x >= actors.x[pad_index] + actors.width[pad_index] - 4) {
;
L0009:	lda     _temp_x
	jsr     pusha0
	ldy     _pad_index
	lda     _actors+24,y
	clc
	ldy     _pad_index
	adc     _actors,y
	bcc     L0046
	inx
L0046:	sec
	sbc     #$04
	bcs     L0018
	dex
L0018:	jsr     tosicmp
	bmi     L0015
;
; actors.xDir[SKULL] = RIGHT;
;
	lda     #$01
	sta     _actors+76
;
; actors.xSpeed[SKULL] = 140;
;
	lda     #$8C
	sta     _actors+100
;
; actors.ySpeed[SKULL] = 60;
;
	lda     #$3C
;
; } else if (temp_x >= actors.x[pad_index] + actors.width[pad_index] - 10) {
;
	jmp     L004C
L0015:	lda     _temp_x
	jsr     pusha0
	ldy     _pad_index
	lda     _actors+24,y
	clc
	ldy     _pad_index
	adc     _actors,y
	bcc     L0047
	inx
L0047:	sec
	sbc     #$0A
	bcs     L001D
	dex
L001D:	jsr     tosicmp
	bmi     L001A
;
; actors.xDir[SKULL] = RIGHT;
;
	lda     #$01
	sta     _actors+76
;
; actors.xSpeed[SKULL] = 100;
;
	lda     #$64
	sta     _actors+100
;
; } else {
;
	jmp     L004C
;
; actors.xSpeed[SKULL] = 60;
;
L001A:	lda     #$3C
	sta     _actors+100
;
; actors.ySpeed[SKULL] = 140;
;
	lda     #$8C
L004C:	sta     _actors+112
;
; actors.yDir[SKULL] = actors.y[SKULL] < actors.y[pad_index] ? UP : DOWN;
;
	lda     _actors+16
	ldy     _pad_index
	cmp     _actors+12,y
	bcs     L0056
	lda     #$FF
	jmp     L0021
L0056:	lda     #$01
L0021:	cmp     #$80
	sta     _actors+88
;
; temp = FALSE;
;
	lda     #$00
L0058:	sta     _temp
;
; if (paddle_count > 2) {
;
	lda     _paddle_count
	cmp     #$03
	bcc     L0026
;
; if (actors.x[SKULL] < 127) {
;
	lda     _actors+4
	cmp     #$7F
	bcs     L0059
;
; temp = TRUE;
;
	lda     #$01
	sta     _temp
;
; pad_index = 2;
;
	lda     #$02
;
; } else if (paddle_count > 3) {
;
	jmp     L004D
L0059:	lda     _paddle_count
	cmp     #$04
	bcc     L0026
;
; temp = TRUE;
;
	lda     #$01
	sta     _temp
;
; pad_index = 3;
;
	lda     #$03
L004D:	sta     _pad_index
;
; if (temp && is_skull_collision_paddle()) {
;
L0026:	lda     _temp
	beq     L005B
	jsr     _is_skull_collision_paddle
	tax
	bne     L0029
L005B:	rts
;
; if (temp_y < actors.y[pad_index] + (actors.height[pad_index] >> 1)) {
;
L0029:	lda     _temp_y
	jsr     pusha0
	ldy     _pad_index
	lda     _actors+36,y
	lsr     a
	clc
	ldy     _pad_index
	adc     _actors+12,y
	bcc     L0048
	inx
L0048:	jsr     tosicmp
	bpl     L002B
;
; if (temp_y <= actors.y[pad_index] + 4) {
;
	lda     _temp_y
	jsr     pusha0
	ldy     _pad_index
	lda     _actors+12,y
	clc
	adc     #$04
	bcc     L0030
	ldx     #$01
L0030:	jsr     tosicmp
	beq     L0051
	bpl     L002E
;
; actors.yDir[SKULL] = UP;
;
L0051:	lda     #$FF
	sta     _actors+88
;
; actors.xSpeed[SKULL] = 60;
;
	lda     #$3C
	sta     _actors+100
;
; actors.ySpeed[SKULL] = 140;
;
	lda     #$8C
;
; } else if (temp_x <= actors.x[pad_index] + 8) {
;
	jmp     L004E
L002E:	lda     _temp_x
	jsr     pusha0
	ldy     _pad_index
	lda     _actors,y
	clc
	adc     #$08
	bcc     L0034
	ldx     #$01
L0034:	jsr     tosicmp
	beq     L0052
	bpl     L003C
;
; actors.yDir[SKULL] = UP;
;
L0052:	lda     #$FF
	sta     _actors+88
;
; actors.xSpeed[SKULL] = 100;
;
	lda     #$64
	sta     _actors+100
;
; } else {
;
	jmp     L004E
;
; if (temp_y >= actors.y[pad_index] + actors.height[pad_index] - 4) {
;
L002B:	lda     _temp_y
	jsr     pusha0
	ldy     _pad_index
	lda     _actors+36,y
	clc
	ldy     _pad_index
	adc     _actors+12,y
	bcc     L0049
	inx
L0049:	sec
	sbc     #$04
	bcs     L003A
	dex
L003A:	jsr     tosicmp
	bmi     L0037
;
; actors.yDir[SKULL] = DOWN;
;
	lda     #$01
	sta     _actors+88
;
; actors.xSpeed[SKULL] = 60;
;
	lda     #$3C
	sta     _actors+100
;
; actors.ySpeed[SKULL] = 140;
;
	lda     #$8C
;
; } else if (temp_x >= actors.x[pad_index] + actors.width[pad_index] - 8) {
;
	jmp     L004E
L0037:	lda     _temp_x
	jsr     pusha0
	ldy     _pad_index
	lda     _actors+24,y
	clc
	ldy     _pad_index
	adc     _actors,y
	bcc     L004A
	inx
L004A:	sec
	sbc     #$08
	bcs     L003F
	dex
L003F:	jsr     tosicmp
	bmi     L003C
;
; actors.yDir[SKULL] = RIGHT;
;
	lda     #$01
	sta     _actors+88
;
; actors.xSpeed[SKULL] = 100;
;
	lda     #$64
	sta     _actors+100
;
; } else {
;
	jmp     L004E
;
; actors.xSpeed[SKULL] = 140;
;
L003C:	lda     #$8C
	sta     _actors+100
;
; actors.ySpeed[SKULL] = 60;
;
	lda     #$3C
L004E:	sta     _actors+112
;
; actors.xDir[SKULL] = actors.x[SKULL] < actors.x[pad_index] ? LEFT : RIGHT;
;
	lda     _actors+4
	ldy     _pad_index
	cmp     _actors,y
	bcs     L005C
	lda     #$FF
	jmp     L0043
L005C:	lda     #$01
L0043:	cmp     #$80
	sta     _actors+76
;
; }
;
	rts

.endproc

; ---------------------------------------------------------------
; void __near__ check_main_input (void)
; ---------------------------------------------------------------

.segment	"CODE"

.proc	_check_main_input: near

.segment	"CODE"

;
; for (pad_index = 0; pad_index < paddle_count; ++pad_index) {
;
	lda     #$00
	sta     _pad_index
L0016:	lda     _pad_index
	cmp     _paddle_count
	bcs     L001A
;
; param1 = pad_index;
;
	sta     _param1
;
; if (pad_index < 2) {
;
	lda     _pad_index
	cmp     #$02
	bcs     L0018
;
; if (pad1 & PAD_LEFT) {
;
	lda     _pad1
	and     #$02
	beq     L0017
;
; add_x_speed(80);
;
	lda     #$50
	jsr     _add_x_speed
;
; actors.xDir[pad_index] = LEFT;
;
	ldy     _pad_index
	lda     #$FF
	sta     _actors+72,y
;
; if (pad1 & PAD_RIGHT) {
;
L0017:	lda     _pad1
	and     #$01
	beq     L0009
;
; add_x_speed(80);
;
	lda     #$50
	jsr     _add_x_speed
;
; actors.xDir[pad_index] = RIGHT;
;
	ldy     _pad_index
	lda     #$01
	sta     _actors+72,y
;
; move_horizontal_paddle();
;
L0009:	jsr     _move_horizontal_paddle
;
; } else {
;
	jmp     L0004
;
; if (pad1 & PAD_UP) {
;
L0018:	lda     _pad1
	and     #$08
	beq     L0019
;
; add_y_speed(80);
;
	lda     #$50
	jsr     _add_y_speed
;
; actors.yDir[pad_index] = UP;
;
	ldy     _pad_index
	lda     #$FF
	sta     _actors+84,y
;
; if (pad1 & PAD_DOWN) {
;
L0019:	lda     _pad1
	and     #$04
	beq     L000E
;
; add_y_speed(80);
;
	lda     #$50
	jsr     _add_y_speed
;
; actors.yDir[pad_index] = DOWN;
;
	ldy     _pad_index
	lda     #$01
	sta     _actors+84,y
;
; move_vertical_paddle();
;
L000E:	jsr     _move_vertical_paddle
;
; for (pad_index = 0; pad_index < paddle_count; ++pad_index) {
;
L0004:	inc     _pad_index
	jmp     L0016
;
; if (pad1_new & PAD_A) {
;
L001A:	lda     _pad1_new
	and     #$80
	beq     L001C
;
; if (skull_launched) {
;
	lda     _skull_launched
	beq     L001B
;
; temp = 80;
;
	lda     #$50
	sta     _temp
;
; actors.xVelocity[0] = temp;
;
	sta     _actors+144
;
; actors.xVelocity[1] = temp;
;
	lda     _temp
	sta     _actors+145
;
; actors.yVelocity[2] = temp;
;
	lda     _temp
	sta     _actors+158
;
; actors.yVelocity[3] = temp;
;
	lda     _temp
	sta     _actors+159
;
; } else {
;
	jmp     L001C
;
; skull_launched = TRUE;
;
L001B:	lda     #$01
	sta     _skull_launched
;
; actors.state[SKULL] = ROTATE_H;
;
	lda     #$02
	sta     _actors+232
;
; if (pad1 & PAD_B) {
;
L001C:	lda     _pad1
	ldx     #$00
	and     #$40
	stx     tmp1
	ora     tmp1
;
; if (pad1 & PAD_SELECT) {
;
	lda     _pad1
	and     #$20
	ora     tmp1
;
; if (pad1_new & PAD_START) {
;
	lda     _pad1_new
	and     #$10
	beq     L0015
;
; game_state = MAP;
;
	lda     #$03
	sta     _game_state
;
; }
;
L0015:	rts

.endproc

; ---------------------------------------------------------------
; void __near__ update_skull (void)
; ---------------------------------------------------------------

.segment	"CODE"

.proc	_update_skull: near

.segment	"CODE"

;
; backup_col_type = NULL;
;
	ldx     #$00
	stx     _backup_col_type
;
; if (skull_launched) {
;
	lda     _skull_launched
	jeq     L004C
;
; param1 = SKULL;
;
	lda     #$04
	sta     _param1
;
; temp_x = actors.x[SKULL] + get_x_speed();
;
	lda     _actors+4
	jsr     pusha0
	jsr     _get_x_speed
	jsr     tosaddax
	sta     _temp_x
;
; temp_y = actors.y[SKULL] + get_y_speed();
;
	lda     _actors+16
	jsr     pusha0
	jsr     _get_y_speed
	jsr     tosaddax
	sta     _temp_y
;
; ++temp_x;
;
	inc     _temp_x
;
; ++temp_y;
;
	inc     _temp_y
;
; if (actors.xDir[SKULL] == RIGHT) {
;
	lda     _actors+76
	cmp     #$01
	jne     L0003
;
; if (actors.yDir[SKULL] == DOWN) {
;
	lda     _actors+88
	cmp     #$01
	jne     L0005
;
; temp_x_col = temp_x;
;
	lda     _temp_x
	sta     _temp_x_col
;
; temp_y_col = temp_y + actors.height[SKULL];
;
	lda     _temp_y
	clc
	adc     _actors+40
	sta     _temp_y_col
;
; if (set_collision_data()) {
;
	jsr     _set_collision_data
	tax
	beq     L0041
;
; if (backup_col_type != COL_TYPE_SOFT) {
;
	lda     _backup_col_type
	cmp     #$06
	beq     L0008
;
; actors.yDir[SKULL] = UP;
;
	lda     #$FF
	sta     _actors+88
;
; temp_y -= temp_y % 8;
;
	lda     _temp_y
	and     #$07
	eor     #$FF
	sec
	adc     _temp_y
	sta     _temp_y
;
; do_skull_tile_collision();
;
L0008:	jsr     _do_skull_tile_collision
;
; temp_x_col += actors.width[SKULL];
;
L0041:	lda     _actors+28
	clc
	adc     _temp_x_col
	sta     _temp_x_col
;
; temp_y_col = temp_y;
;
	lda     _temp_y
	sta     _temp_y_col
;
; if (set_collision_data()) {
;
	jsr     _set_collision_data
	tax
	beq     L0042
;
; if (backup_col_type != COL_TYPE_SOFT) {
;
	lda     _backup_col_type
	cmp     #$06
	jeq     L0034
;
; actors.xDir[SKULL] = LEFT;
;
	lda     #$FF
	sta     _actors+76
;
; temp_x -= temp_x % 8;
;
	lda     _temp_x
	and     #$07
	eor     #$FF
	sec
	adc     _temp_x
	sta     _temp_x
;
; } else {
;
	jmp     L0034
;
; temp_y_col += actors.height[SKULL];
;
L0042:	lda     _actors+40
	clc
	adc     _temp_y_col
	sta     _temp_y_col
;
; if (set_collision_data()) {
;
	jsr     _set_collision_data
	tax
	jeq     L0030
;
; if (backup_col_type != COL_TYPE_SOFT) {
;
	lda     _backup_col_type
	cmp     #$06
	jeq     L0034
;
; temp = temp_x_col & 0b11111000;  // Find the x of collision tile
;
	lda     _temp_x_col
	and     #$F8
	sta     _temp
;
; if (actors.x[SKULL] + 7 < temp) {
;
	ldx     #$00
	lda     _actors+4
	clc
	adc     #$07
	bcc     L000F
	inx
L000F:	cmp     _temp
	txa
	sbc     #$00
	bvc     L003E
	eor     #$80
L003E:	bpl     L000E
;
; actors.xDir[SKULL] = LEFT;
;
	lda     #$FF
	sta     _actors+76
;
; temp_x &= 0b11111000;
;
	lda     _temp_x
	and     #$F8
	sta     _temp_x
;
; } else {
;
	jmp     L0034
;
; actors.yDir[SKULL] = UP;
;
L000E:	lda     #$FF
	sta     _actors+88
;
; temp_y &= 0b11111000;
;
	lda     _temp_y
	and     #$F8
;
; } else {
;
	jmp     L004E
;
; temp_x_col = temp_x;
;
L0005:	lda     _temp_x
	sta     _temp_x_col
;
; temp_y_col = temp_y;
;
	lda     _temp_y
	sta     _temp_y_col
;
; if (set_collision_data()) {
;
	jsr     _set_collision_data
	tax
	beq     L0043
;
; if (backup_col_type != COL_TYPE_SOFT) {
;
	lda     _backup_col_type
	cmp     #$06
	beq     L0013
;
; actors.yDir[SKULL] = DOWN;
;
	lda     #$01
	sta     _actors+88
;
; temp_y += 8;
;
	lda     #$08
	clc
	adc     _temp_y
	sta     _temp_y
;
; temp_y -= temp_y % 8;
;
	and     #$07
	eor     #$FF
	sec
	adc     _temp_y
	sta     _temp_y
;
; do_skull_tile_collision();
;
L0013:	jsr     _do_skull_tile_collision
;
; temp_x_col = temp_x + actors.width[SKULL];
;
L0043:	lda     _temp_x
	clc
	adc     _actors+28
	sta     _temp_x_col
;
; temp_y_col += actors.height[SKULL];
;
	lda     _actors+40
	clc
	adc     _temp_y_col
	sta     _temp_y_col
;
; if (set_collision_data()) {
;
	jsr     _set_collision_data
	tax
	beq     L0044
;
; if (backup_col_type != COL_TYPE_SOFT) {
;
	lda     _backup_col_type
	cmp     #$06
	jeq     L0034
;
; actors.xDir[SKULL] = LEFT;
;
	lda     #$FF
	sta     _actors+76
;
; temp_x -= temp_x % 8;
;
	lda     _temp_x
	and     #$07
	eor     #$FF
	sec
	adc     _temp_x
	sta     _temp_x
;
; } else {
;
	jmp     L0034
;
; temp_y_col = temp_y;
;
L0044:	lda     _temp_y
	sta     _temp_y_col
;
; if (set_collision_data()) {
;
	jsr     _set_collision_data
	tax
	jeq     L0030
;
; if (backup_col_type != COL_TYPE_SOFT) {
;
	lda     _backup_col_type
	cmp     #$06
	jeq     L0034
;
; temp = temp_x_col & 0b11111000;
;
	lda     _temp_x_col
	and     #$F8
	sta     _temp
;
; if (actors.x[SKULL] + 7 < temp) {
;
	ldx     #$00
	lda     _actors+4
	clc
	adc     #$07
	bcc     L001A
	inx
L001A:	cmp     _temp
	txa
	sbc     #$00
	bvc     L003F
	eor     #$80
L003F:	jpl     L004A
;
; actors.xDir[SKULL] = LEFT;
;
	lda     #$FF
	sta     _actors+76
;
; temp_x &= 0b11111000;
;
	lda     _temp_x
	and     #$F8
	sta     _temp_x
;
; } else {
;
	jmp     L0034
;
; if (actors.yDir[SKULL] == DOWN) {
;
L0003:	lda     _actors+88
	cmp     #$01
	jne     L001E
;
; temp_x_col = temp_x + actors.width[SKULL];
;
	lda     _temp_x
	clc
	adc     _actors+28
	sta     _temp_x_col
;
; temp_y_col = temp_y + actors.height[SKULL];
;
	lda     _temp_y
	clc
	adc     _actors+40
	sta     _temp_y_col
;
; if (set_collision_data()) {
;
	jsr     _set_collision_data
	tax
	beq     L0046
;
; if (backup_col_type != COL_TYPE_SOFT) {
;
	lda     _backup_col_type
	cmp     #$06
	beq     L0021
;
; actors.yDir[SKULL] = UP;
;
	lda     #$FF
	sta     _actors+88
;
; temp_y -= temp_y % 8;
;
	lda     _temp_y
	and     #$07
	eor     #$FF
	sec
	adc     _temp_y
	sta     _temp_y
;
; do_skull_tile_collision();
;
L0021:	jsr     _do_skull_tile_collision
;
; temp_x_col = temp_x;
;
L0046:	lda     _temp_x
	sta     _temp_x_col
;
; temp_y_col = temp_y;
;
	lda     _temp_y
	sta     _temp_y_col
;
; if (set_collision_data()) {
;
	jsr     _set_collision_data
	tax
	beq     L0047
;
; if (backup_col_type != COL_TYPE_SOFT) {
;
	lda     _backup_col_type
	cmp     #$06
	jeq     L0034
;
; actors.xDir[SKULL] = RIGHT;
;
	lda     #$01
	sta     _actors+76
;
; temp_x += 8;
;
	lda     #$08
	clc
	adc     _temp_x
	sta     _temp_x
;
; temp_x -= temp_x % 8;
;
	and     #$07
	eor     #$FF
	sec
	adc     _temp_x
	sta     _temp_x
;
; } else {
;
	jmp     L0034
;
; temp_x_col = temp_x;
;
L0047:	lda     _temp_x
	sta     _temp_x_col
;
; temp_y_col += actors.height[SKULL];
;
	lda     _actors+40
	clc
	adc     _temp_y_col
	sta     _temp_y_col
;
; if (set_collision_data()) {
;
	jsr     _set_collision_data
	tax
	jeq     L0030
;
; if (backup_col_type != COL_TYPE_SOFT) {
;
	lda     _backup_col_type
	cmp     #$06
	jeq     L0034
;
; temp = temp_x_col & 0b11111000;
;
	lda     _temp_x_col
	and     #$F8
	sta     _temp
;
; if (actors.x[SKULL] > temp + 7) {
;
	lda     _actors+4
	jsr     pusha0
	lda     _temp
	clc
	adc     #$07
	bcc     L0028
	ldx     #$01
L0028:	jsr     tosicmp
	bmi     L0027
	beq     L0027
;
; actors.xDir[SKULL] = RIGHT;
;
	lda     #$01
	sta     _actors+76
;
; temp_x = actors.x[SKULL] & 0b11111000;
;
	lda     _actors+4
	and     #$F8
	sta     _temp_x
;
; } else {
;
	jmp     L0034
;
; actors.yDir[SKULL] = UP;
;
L0027:	lda     #$FF
	sta     _actors+88
;
; temp_y &= 0b11111000;
;
	lda     _temp_y
	and     #$F8
;
; } else {
;
	jmp     L004E
;
; temp_x_col = temp_x + actors.width[SKULL];
;
L001E:	lda     _temp_x
	clc
	adc     _actors+28
	sta     _temp_x_col
;
; temp_y_col = temp_y;
;
	lda     _temp_y
	sta     _temp_y_col
;
; if (set_collision_data()) {
;
	jsr     _set_collision_data
	tax
	beq     L0048
;
; if (backup_col_type != COL_TYPE_SOFT) {
;
	lda     _backup_col_type
	cmp     #$06
	beq     L002C
;
; actors.yDir[SKULL] = DOWN;
;
	lda     #$01
	sta     _actors+88
;
; temp_y += 8;
;
	lda     #$08
	clc
	adc     _temp_y
	sta     _temp_y
;
; temp_y -= temp_y % 8;
;
	and     #$07
	eor     #$FF
	sec
	adc     _temp_y
	sta     _temp_y
;
; do_skull_tile_collision();
;
L002C:	jsr     _do_skull_tile_collision
;
; temp_x_col = temp_x;
;
L0048:	lda     _temp_x
	sta     _temp_x_col
;
; temp_y_col = temp_y + actors.height[SKULL];
;
	lda     _temp_y
	clc
	adc     _actors+40
	sta     _temp_y_col
;
; if (set_collision_data()) {
;
	jsr     _set_collision_data
	tax
	beq     L0049
;
; if (backup_col_type != COL_TYPE_SOFT) {
;
	lda     _backup_col_type
	cmp     #$06
	beq     L0034
;
; actors.xDir[SKULL] = RIGHT;
;
	lda     #$01
	sta     _actors+76
;
; temp_x += 8;
;
	lda     #$08
	clc
	adc     _temp_x
	sta     _temp_x
;
; temp_x -= temp_x % 8;
;
	and     #$07
	eor     #$FF
	sec
	adc     _temp_x
	sta     _temp_x
;
; } else {
;
	jmp     L0034
;
; temp_y_col = temp_y;
;
L0049:	lda     _temp_y
	sta     _temp_y_col
;
; if (set_collision_data()) {
;
	jsr     _set_collision_data
	tax
	beq     L0030
;
; if (backup_col_type != COL_TYPE_SOFT) {
;
	lda     _backup_col_type
	cmp     #$06
	beq     L0034
;
; temp = (temp_x_col & 0b11111000) + 7;
;
	lda     _temp_x_col
	and     #$F8
	clc
	adc     #$07
	sta     _temp
;
; if (actors.x[SKULL] > temp) {
;
	lda     _actors+4
	cmp     _temp
	bcc     L004A
	beq     L004A
;
; actors.xDir[SKULL] = RIGHT;
;
	lda     #$01
	sta     _actors+76
;
; temp_x = temp;
;
	lda     _temp
	sta     _temp_x
;
; } else {
;
	jmp     L0034
;
; actors.yDir[SKULL] = DOWN;
;
L004A:	lda     #$01
	sta     _actors+88
;
; temp_y = (actors.y[SKULL] & 0b11111000) + 8;
;
	lda     _actors+16
	and     #$F8
	clc
	adc     #$08
L004E:	sta     _temp_y
;
; do_skull_tile_collision();
;
L0034:	jsr     _do_skull_tile_collision
;
; check_paddle_collision();
;
L0030:	jsr     _check_paddle_collision
;
; check_enemy_collision();
;
	jsr     _check_enemy_collision
;
; --temp_x;
;
	dec     _temp_x
;
; --temp_y;
;
	dec     _temp_y
;
; } else {
;
	jmp     L004D
;
; temp_x = actors.x[PADDLE] + (actors.width[PADDLE] >> 1) - (actors.width[SKULL] >> 1);
;
L004C:	lda     _actors+24
	lsr     a
	clc
	adc     _actors
	bcc     L0040
	inx
L0040:	jsr     pushax
	lda     _actors+28
	lsr     a
	jsr     tossuba0
	sta     _temp_x
;
; temp_y = actors.y[PADDLE] + actors.bbox_y[PADDLE] - actors.height[SKULL] - actors.bbox_x[SKULL];
;
	lda     _actors+12
	clc
	adc     _actors+60
	sec
	sbc     _actors+40
	sec
	sbc     _actors+52
	sta     _temp_y
;
; actors.x[SKULL] = temp_x;
;
L004D:	lda     _temp_x
	sta     _actors+4
;
; actors.y[SKULL] = temp_y;
;
	lda     _temp_y
	sta     _actors+16
;
; }
;
	rts

.endproc

; ---------------------------------------------------------------
; void __near__ draw_skull (void)
; ---------------------------------------------------------------

.segment	"CODE"

.proc	_draw_skull: near

.segment	"CODE"

;
; set_animation_info(SKULL, skull_animation_index);
;
	lda     #$04
	jsr     pusha
	lda     #<(_skull_animation_index)
	ldx     #>(_skull_animation_index)
	jsr     _set_animation_info
;
; oam_meta_spr(actors.x[SKULL], actors.y[SKULL], skull_animation[actors.current_frame[SKULL] + param2]);
;
	jsr     decsp2
	lda     _actors+4
	ldy     #$01
	sta     (sp),y
	lda     _actors+16
	dey
	sta     (sp),y
	ldx     #$00
	lda     _actors+220
	clc
	adc     _param2
	bcc     L0002
	inx
L0002:	stx     tmp1
	asl     a
	rol     tmp1
	clc
	adc     #<(_skull_animation)
	sta     ptr1
	lda     tmp1
	adc     #>(_skull_animation)
	sta     ptr1+1
	iny
	lda     (ptr1),y
	tax
	dey
	lda     (ptr1),y
	jmp     _oam_meta_spr

.endproc

; ---------------------------------------------------------------
; void __near__ draw_paddles (void)
; ---------------------------------------------------------------

.segment	"CODE"

.proc	_draw_paddles: near

.segment	"CODE"

;
; for (i = 0; i < paddle_count; ++i) {
;
	lda     #$00
	sta     _i
L000D:	lda     _i
	cmp     _paddle_count
	bcs     L0003
;
; if (i < 2) {
;
	cmp     #$02
	bcs     L0006
;
; oam_meta_spr(actors.x[i], actors.y[i], HorizontalPaddleSpr);
;
	jsr     decsp2
	ldy     _i
	lda     _actors,y
	ldy     #$01
	sta     (sp),y
	ldy     _i
	lda     _actors+12,y
	ldy     #$00
	sta     (sp),y
	lda     #<(_HorizontalPaddleSpr)
	ldx     #>(_HorizontalPaddleSpr)
;
; } else {
;
	jmp     L000C
;
; oam_meta_spr(actors.x[i], actors.y[i], VerticalPaddleSpr);
;
L0006:	jsr     decsp2
	ldy     _i
	lda     _actors,y
	ldy     #$01
	sta     (sp),y
	ldy     _i
	lda     _actors+12,y
	ldy     #$00
	sta     (sp),y
	lda     #<(_VerticalPaddleSpr)
	ldx     #>(_VerticalPaddleSpr)
L000C:	jsr     _oam_meta_spr
;
; for (i = 0; i < paddle_count; ++i) {
;
	inc     _i
	jmp     L000D
;
; }
;
L0003:	rts

.endproc

; ---------------------------------------------------------------
; void __near__ draw_sprites (void)
; ---------------------------------------------------------------

.segment	"CODE"

.proc	_draw_sprites: near

.segment	"CODE"

;
; oam_clear();
;
	jsr     _oam_clear
;
; draw_paddles();
;
	jsr     _draw_paddles
;
; draw_skull();
;
	jsr     _draw_skull
;
; draw_level_specifics();
;
	jmp     _draw_level_specifics

.endproc

; ---------------------------------------------------------------
; void __near__ move_skull_map (void)
; ---------------------------------------------------------------

.segment	"CODE"

.proc	_move_skull_map: near

.segment	"CODE"

;
; if (param1 > param3) {
;
	lda     _param1
	cmp     _param3
	bcc     L0008
	beq     L0008
;
; temp_x = param1 - param3;
;
	sec
	sbc     _param3
;
; } else {
;
	jmp     L000C
;
; temp_x = param3 - param1;
;
L0008:	lda     _param3
	sec
	sbc     _param1
L000C:	sta     _temp_x
;
; if (param2 > param4) {
;
	lda     _param2
	cmp     _param4
	bcc     L0009
	beq     L0009
;
; temp_y = param2 - param4;
;
	sec
	sbc     _param4
;
; } else {
;
	jmp     L000D
;
; temp_y = param4 - param2;
;
L0009:	lda     _param4
	sec
	sbc     _param2
L000D:	sta     _temp_y
;
; }
;
	rts

.endproc

; ---------------------------------------------------------------
; void __near__ fadeout (void)
; ---------------------------------------------------------------

.segment	"CODE"

.proc	_fadeout: near

.segment	"CODE"

;
; if (story_counter % FADE_SPEED == 0) {
;
	lda     _story_counter
	jsr     pusha0
	lda     #$18
	jsr     tosumoda0
	cpx     #$00
	bne     L0002
	cmp     #$00
	bne     L0002
;
; pal_bright(--brightness);
;
	dec     _brightness
	lda     _brightness
	jsr     _pal_bright
;
; if (brightness == 0) {
;
L0002:	lda     _brightness
	bne     L0004
;
; ++story_step;
;
	inc     _story_step
;
; story_counter = 0;
;
	sta     _story_counter
;
; }
;
L0004:	rts

.endproc

; ---------------------------------------------------------------
; void __near__ fadein (void)
; ---------------------------------------------------------------

.segment	"CODE"

.proc	_fadein: near

.segment	"CODE"

;
; if (story_counter % FADE_SPEED == 0) {
;
	lda     _story_counter
	jsr     pusha0
	lda     #$18
	jsr     tosumoda0
	cpx     #$00
	bne     L0002
	cmp     #$00
	bne     L0002
;
; pal_bright(++brightness);
;
	inc     _brightness
	lda     _brightness
	jsr     _pal_bright
;
; if (brightness == 4) {
;
L0002:	lda     _brightness
	cmp     #$04
	bne     L0004
;
; ++story_step;
;
	inc     _story_step
;
; story_counter = 0;
;
	lda     #$00
	sta     _story_counter
;
; }
;
L0004:	rts

.endproc

; ---------------------------------------------------------------
; void __near__ brightout (void)
; ---------------------------------------------------------------

.segment	"CODE"

.proc	_brightout: near

.segment	"CODE"

;
; if (story_counter % FADE_SPEED == 0) {
;
	lda     _story_counter
	jsr     pusha0
	lda     #$18
	jsr     tosumoda0
	cpx     #$00
	bne     L0002
	cmp     #$00
	bne     L0002
;
; pal_bright(++brightness);
;
	inc     _brightness
	lda     _brightness
	jsr     _pal_bright
;
; if (brightness == 8) {
;
L0002:	lda     _brightness
	cmp     #$08
	bne     L0004
;
; ++story_step;
;
	inc     _story_step
;
; story_counter = 0;
;
	lda     #$00
	sta     _story_counter
;
; brightness = 4;
;
	lda     #$04
	sta     _brightness
;
; }
;
L0004:	rts

.endproc

; ---------------------------------------------------------------
; void __near__ wait_input (void)
; ---------------------------------------------------------------

.segment	"CODE"

.proc	_wait_input: near

.segment	"CODE"

;
; if (wait_timer > 64 ) {
;
	lda     _wait_timer
	cmp     #$41
	bcc     L0006
;
; one_vram_buffer (0x00, NTADR_A(30, 3));
;
	lda     #$00
;
; } else {
;
	jmp     L0009
;
; one_vram_buffer (0x29, NTADR_A(30, 3));
;
L0006:	lda     #$29
L0009:	jsr     pusha
	ldx     #$20
	lda     #$7E
	jsr     _one_vram_buffer
;
; if (pad1_new) {
;
	lda     _pad1_new
	beq     L0004
;
; ++story_step;
;
	inc     _story_step
;
; story_counter = 0;
;
	lda     #$00
	sta     _story_counter
;
; wait_timer = 0;
;
	sta     _wait_timer
;
; multi_vram_buffer_horz(empty_line, sizeof(empty_line), NTADR_A(7, 1));
;
	jsr     decsp3
	lda     #<(_empty_line)
	ldy     #$01
	sta     (sp),y
	iny
	lda     #>(_empty_line)
	sta     (sp),y
	lda     #$18
	ldy     #$00
	sta     (sp),y
	ldx     #$20
	lda     #$27
	jsr     _multi_vram_buffer_horz
;
; ppu_wait_nmi();
;
	jsr     _ppu_wait_nmi
;
; multi_vram_buffer_horz(empty_line, sizeof(empty_line), NTADR_A(7, 2));
;
	jsr     decsp3
	lda     #<(_empty_line)
	ldy     #$01
	sta     (sp),y
	iny
	lda     #>(_empty_line)
	sta     (sp),y
	lda     #$18
	ldy     #$00
	sta     (sp),y
	ldx     #$20
	lda     #$47
	jsr     _multi_vram_buffer_horz
;
; ppu_wait_nmi();
;
	jsr     _ppu_wait_nmi
;
; multi_vram_buffer_horz(empty_line, sizeof(empty_line), NTADR_A(7, 3));
;
	jsr     decsp3
	lda     #<(_empty_line)
	ldy     #$01
	sta     (sp),y
	iny
	lda     #>(_empty_line)
	sta     (sp),y
	lda     #$18
	ldy     #$00
	sta     (sp),y
	ldx     #$20
	lda     #$67
	jsr     _multi_vram_buffer_horz
;
; ppu_wait_nmi();
;
	jsr     _ppu_wait_nmi
;
; ++wait_timer;
;
L0004:	inc     _wait_timer
;
; }
;
	rts

.endproc

; ---------------------------------------------------------------
; void __near__ wait (unsigned char delay)
; ---------------------------------------------------------------

.segment	"CODE"

.proc	_wait: near

.segment	"CODE"

;
; void wait(unsigned char delay){
;
	jsr     pusha
;
; if (story_counter > delay){
;
	lda     _story_counter
	ldy     #$00
	cmp     (sp),y
	bcc     L0002
	beq     L0002
;
; ++story_step;
;
	inc     _story_step
;
; story_counter = 0;
;
	sty     _story_counter
;
; }
;
L0002:	jmp     incsp1

.endproc

; ---------------------------------------------------------------
; void __near__ play_story (void)
; ---------------------------------------------------------------

.segment	"CODE"

.proc	_play_story: near

.segment	"CODE"

;
; switch (current_level) {
;
	lda     _current_level
;
; }
;
	beq     L0004
	cmp     #$01
	jeq     L0045
	jmp     L0050
;
; oam_clear();
;
L0004:	jsr     _oam_clear
;
; draw_level_specifics();
;
	jsr     _draw_level_specifics
;
; switch (story_step) {
;
	lda     _story_step
;
; }
;
	beq     L003B
	cmp     #$01
	beq     L003C
	cmp     #$02
	jeq     L003E
	cmp     #$03
	jeq     L0041
	cmp     #$04
	jeq     L0038
	cmp     #$05
	jeq     L0013
	cmp     #$06
	jeq     L0014
	cmp     #$07
	jeq     L0042
	cmp     #$08
	jeq     L0043
	cmp     #$09
	jeq     L0044
	cmp     #$0A
	jeq     L0038
	cmp     #$0B
	jeq     L001B
	jmp     L0050
;
; if (story_counter == 128) {
;
L003B:	lda     _story_counter
	cmp     #$80
	jne     L0050
;
; ++actors.state[NECROMANCER];
;
	inc     _actors+233
;
; actors.current_frame[NECROMANCER] = 0;
;
	lda     #$00
	sta     _actors+221
;
; story_counter = 0;
;
	sta     _story_counter
;
; ++story_step;
;
	inc     _story_step
;
; break;
;
	jmp     L0050
;
; if (story_counter == 64) {
;
L003C:	lda     _story_counter
	cmp     #$40
	bne     L003D
;
; ++actors.state[NECROMANCER];
;
	inc     _actors+233
;
; if (story_counter > 68) {
;
L003D:	lda     _story_counter
	cmp     #$45
	jcc     L0050
;
; pal_bright(6);
;
	lda     #$06
	jsr     _pal_bright
;
; pal_spr(pal_altar_lightning);
;
	lda     #<(_pal_altar_lightning)
	ldx     #>(_pal_altar_lightning)
	jsr     _pal_spr
;
; ++actors.state[LIGHTNING];
;
	inc     _actors+234
;
; story_counter = 0;
;
	lda     #$00
	sta     _story_counter
;
; ++story_step;
;
	inc     _story_step
;
; break;
;
	jmp     L0050
;
; if (story_counter > 2) {
;
L003E:	lda     _story_counter
	cmp     #$03
	bcc     L003F
;
; pal_bright(4);
;
	lda     #$04
	jsr     _pal_bright
;
; if (actors.state[LIGHTNING] == WALKING) {
;
L003F:	lda     _actors+234
	cmp     #$02
	bne     L0040
;
; pal_spr(pal_altar_spr);
;
	lda     #<(_pal_altar_spr)
	ldx     #>(_pal_altar_spr)
	jsr     _pal_spr
;
; ++story_step;
;
	inc     _story_step
;
; story_counter = 0;
;
	lda     #$00
	sta     _story_counter
;
; if (actors.current_frame[LIGHTNING] == 8) {
;
L0040:	lda     _actors+222
	cmp     #$08
	jne     L0050
;
; pal_bright(6);
;
	lda     #$06
	jsr     _pal_bright
;
; actors.x[SKULL] = 125;
;
	lda     #$7D
	sta     _actors+4
;
; actors.y[SKULL] = 130;
;
	lda     #$82
	sta     _actors+16
;
; break;
;
	jmp     L0050
;
; if (story_counter > 180) {
;
L0041:	lda     _story_counter
	cmp     #$B5
	jcc     L0050
;
; ++story_step;
;
	inc     _story_step
;
; story_counter = 0;
;
	lda     #$00
	sta     _story_counter
;
; break;
;
	jmp     L0050
;
; show_map();
;
L0013:	jsr     _show_map
;
; actors.x[SKULL] = 128;
;
	lda     #$80
	sta     _actors+4
;
; actors.y[SKULL] = 56;
;
	lda     #$38
	sta     _actors+16
;
; ++story_step;
;
	inc     _story_step
;
; fadein();
;
L0014:	jsr     _fadein
;
; break;
;
	jmp     L0050
;
; story_counter = 56;
;
L0042:	lda     #$38
	sta     _story_counter
;
; ++story_step;
;
	inc     _story_step
;
; actors.y[SKULL] = story_counter;
;
L0043:	lda     _story_counter
	sta     _actors+16
;
; if (story_counter > 156) {
;
	lda     _story_counter
	cmp     #$9D
	jcc     L0050
;
; ++story_step;
;
	inc     _story_step
;
; story_counter = 128;
;
	lda     #$80
	sta     _story_counter
;
; break;
;
	jmp     L0050
;
; actors.x[SKULL] = story_counter;
;
L0044:	lda     _story_counter
	sta     _actors+4
;
; if (story_counter > 156) {
;
	lda     _story_counter
	cmp     #$9D
	jcc     L0050
;
; ++story_step;
;
	inc     _story_step
;
; story_counter = 0;
;
	lda     #$00
	sta     _story_counter
;
; break;
;
	jmp     L0050
;
; oam_clear();
;
L001B:	jsr     _oam_clear
;
; current_level = 1;
;
	lda     #$01
	sta     _current_level
;
; story_step = 0;
;
	lda     #$00
	sta     _story_step
;
; actors.y[SKULL] = 240;
;
	lda     #$F0
	sta     _actors+16
;
; break;
;
	jmp     L0050
;
; if (story_step > 6) {
;
L0045:	lda     _story_step
	cmp     #$07
	bcc     L0046
;
; draw_sprites();
;
	jsr     _draw_sprites
;
; if (story_step < 18){
;
	lda     _story_step
	cmp     #$12
	bcs     L0046
;
; oam_meta_spr(16, 8, angelic_face);
;
	jsr     decsp2
	lda     #$10
	ldy     #$01
	sta     (sp),y
	lda     #$08
	dey
	sta     (sp),y
	lda     #<(_angelic_face)
	ldx     #>(_angelic_face)
	jsr     _oam_meta_spr
;
; set_animation_info(ANGELICA, angelic_animation_index);
;
	lda     #$05
	jsr     pusha
	lda     #<(_angelic_animation_index)
	ldx     #>(_angelic_animation_index)
	jsr     _set_animation_info
;
; oam_meta_spr(actors.x[ANGELICA], actors.y[ANGELICA], angelic_animation[actors.current_frame[ANGELICA] + param2]);
;
	jsr     decsp2
	lda     _actors+5
	ldy     #$01
	sta     (sp),y
	lda     _actors+17
	dey
	sta     (sp),y
	ldx     #$00
	lda     _actors+221
	clc
	adc     _param2
	bcc     L003A
	inx
L003A:	stx     tmp1
	asl     a
	rol     tmp1
	clc
	adc     #<(_angelic_animation)
	sta     ptr1
	lda     tmp1
	adc     #>(_angelic_animation)
	sta     ptr1+1
	iny
	lda     (ptr1),y
	tax
	dey
	lda     (ptr1),y
	jsr     _oam_meta_spr
;
; switch (story_step) {
;
L0046:	lda     _story_step
;
; }
;
	jeq     L0021
	cmp     #$01
	jeq     L0047
	cmp     #$02
	jeq     L0023
	cmp     #$03
	jeq     L0048
	cmp     #$04
	jeq     L0025
	cmp     #$05
	jeq     L0049
	cmp     #$06
	jeq     L004A
	cmp     #$07
	jeq     L0028
	cmp     #$08
	jeq     L004B
	cmp     #$09
	jeq     L002A
	cmp     #$0A
	jeq     L002B
	cmp     #$0B
	jeq     L002C
	cmp     #$0C
	jeq     L002D
	cmp     #$0D
	jeq     L002E
	cmp     #$0E
	jeq     L002F
	cmp     #$0F
	jeq     L0030
	cmp     #$10
	jeq     L0031
	cmp     #$11
	jeq     L0032
	cmp     #$12
	jeq     L004C
	cmp     #$13
	jeq     L004D
	cmp     #$14
	jeq     L004E
	cmp     #$15
	jeq     L004F
	cmp     #$16
	jeq     L0038
	jmp     L0050
;
; load_black_level();
;
L0021:	jsr     _load_black_level
;
; pal_bg(levels.background_palette[1]);
;
	lda     _levels+10
	ldx     _levels+10+1
	jsr     _pal_bg
;
; pal_bright(4);
;
	lda     #$04
	jsr     _pal_bright
;
; ++story_step;
;
	inc     _story_step
;
; break;
;
	jmp     L0050
;
; wait(128);
;
L0047:	lda     #$80
	jsr     _wait
;
; break;
;
	jmp     L0050
;
; multi_vram_buffer_horz(dialogs[0], sizeof(dialogs[0]), NTADR_A(6, 15));
;
L0023:	jsr     decsp3
	lda     #<(_dialogs)
	ldy     #$01
	sta     (sp),y
	iny
	lda     #>(_dialogs)
	sta     (sp),y
	lda     #$18
	ldy     #$00
	sta     (sp),y
	ldx     #$21
	lda     #$E6
	jsr     _multi_vram_buffer_horz
;
; ++story_step;
;
	inc     _story_step
;
; break;
;
	jmp     L0050
;
; wait(72);
;
L0048:	lda     #$48
	jsr     _wait
;
; break;
;
	jmp     L0050
;
; multi_vram_buffer_horz(dialogs[1], sizeof(dialogs[1]), NTADR_A(15, 15));
;
L0025:	jsr     decsp3
	lda     #<(_dialogs+24)
	ldy     #$01
	sta     (sp),y
	iny
	lda     #>(_dialogs+24)
	sta     (sp),y
	lda     #$18
	ldy     #$00
	sta     (sp),y
	ldx     #$21
	lda     #$EF
	jsr     _multi_vram_buffer_horz
;
; ++story_step;
;
	inc     _story_step
;
; break;
;
	jmp     L0050
;
; wait(128);
;
L0049:	lda     #$80
	jsr     _wait
;
; break;
;
	jmp     L0050
;
; pal_bright(0);
;
L004A:	lda     #$00
	jsr     _pal_bright
;
; brightness = 0;
;
	lda     #$00
	sta     _brightness
;
; load_level();
;
	jsr     _load_level
;
; hide_map();
;
	jsr     _hide_map
;
; actors.x[ANGELICA] = 120;
;
	lda     #$78
	sta     _actors+5
;
; actors.y[ANGELICA] = 92;
;
	lda     #$5C
	sta     _actors+17
;
; actors.current_frame[ANGELICA] = 0;
;
	lda     #$00
	sta     _actors+221
;
; actors.animation_delay[ANGELICA] = 16;
;
	lda     #$10
	sta     _actors+209
;
; actors.state[ANGELICA] = IDLE;
;
	lda     #$00
	sta     _actors+233
;
; actors.x[SKULL] = 0x7C;
;
	lda     #$7C
	sta     _actors+4
;
; actors.y[SKULL] = 0xCA;
;
	lda     #$CA
	sta     _actors+16
;
; ++story_step;
;
	inc     _story_step
;
; break;
;
	jmp     L0050
;
; fadein();
;
L0028:	jsr     _fadein
;
; break;
;
	jmp     L0050
;
; wait(128);
;
L004B:	lda     #$80
	jsr     _wait
;
; break;
;
	jmp     L0050
;
; multi_vram_buffer_horz(dialogs[2], DIALOG_LENGTH, NTADR_A(7, 1));
;
L002A:	jsr     decsp3
	lda     #<(_dialogs+48)
	ldy     #$01
	sta     (sp),y
	iny
	lda     #>(_dialogs+48)
	sta     (sp),y
	lda     #$18
	ldy     #$00
	sta     (sp),y
	ldx     #$20
	lda     #$27
	jsr     _multi_vram_buffer_horz
;
; multi_vram_buffer_horz(dialogs[3], DIALOG_LENGTH, NTADR_A(7, 2));
;
	jsr     decsp3
	lda     #<(_dialogs+72)
	ldy     #$01
	sta     (sp),y
	iny
	lda     #>(_dialogs+72)
	sta     (sp),y
	lda     #$18
	ldy     #$00
	sta     (sp),y
	ldx     #$20
	lda     #$47
	jsr     _multi_vram_buffer_horz
;
; ++story_step;
;
	inc     _story_step
;
; break;
;
	jmp     L0050
;
; wait_input();
;
L002B:	jsr     _wait_input
;
; break;
;
	jmp     L0050
;
; multi_vram_buffer_horz(dialogs[4], DIALOG_LENGTH, NTADR_A(7, 1));
;
L002C:	jsr     decsp3
	lda     #<(_dialogs+96)
	ldy     #$01
	sta     (sp),y
	iny
	lda     #>(_dialogs+96)
	sta     (sp),y
	lda     #$18
	ldy     #$00
	sta     (sp),y
	ldx     #$20
	lda     #$27
	jsr     _multi_vram_buffer_horz
;
; multi_vram_buffer_horz(dialogs[5], DIALOG_LENGTH, NTADR_A(7, 2));
;
	jsr     decsp3
	lda     #<(_dialogs+120)
	ldy     #$01
	sta     (sp),y
	iny
	lda     #>(_dialogs+120)
	sta     (sp),y
	lda     #$18
	ldy     #$00
	sta     (sp),y
	ldx     #$20
	lda     #$47
	jsr     _multi_vram_buffer_horz
;
; ++story_step;
;
	inc     _story_step
;
; break;
;
	jmp     L0050
;
; wait_input();
;
L002D:	jsr     _wait_input
;
; break;
;
	jmp     L0050
;
; multi_vram_buffer_horz(dialogs[6], DIALOG_LENGTH, NTADR_A(7, 1));
;
L002E:	jsr     decsp3
	lda     #<(_dialogs+144)
	ldy     #$01
	sta     (sp),y
	iny
	lda     #>(_dialogs+144)
	sta     (sp),y
	lda     #$18
	ldy     #$00
	sta     (sp),y
	ldx     #$20
	lda     #$27
	jsr     _multi_vram_buffer_horz
;
; multi_vram_buffer_horz(dialogs[7], DIALOG_LENGTH, NTADR_A(7, 2));
;
	jsr     decsp3
	lda     #<(_dialogs+168)
	ldy     #$01
	sta     (sp),y
	iny
	lda     #>(_dialogs+168)
	sta     (sp),y
	lda     #$18
	ldy     #$00
	sta     (sp),y
	ldx     #$20
	lda     #$47
	jsr     _multi_vram_buffer_horz
;
; multi_vram_buffer_horz(dialogs[8], DIALOG_LENGTH, NTADR_A(7, 3));
;
	jsr     decsp3
	lda     #<(_dialogs+192)
	ldy     #$01
	sta     (sp),y
	iny
	lda     #>(_dialogs+192)
	sta     (sp),y
	lda     #$18
	ldy     #$00
	sta     (sp),y
	ldx     #$20
	lda     #$67
	jsr     _multi_vram_buffer_horz
;
; ++story_step;
;
	inc     _story_step
;
; break;
;
	jmp     L0050
;
; wait_input();
;
L002F:	jsr     _wait_input
;
; break;
;
	jmp     L0050
;
; multi_vram_buffer_horz(dialogs[9], DIALOG_LENGTH, NTADR_A(7, 1));
;
L0030:	jsr     decsp3
	lda     #<(_dialogs+216)
	ldy     #$01
	sta     (sp),y
	iny
	lda     #>(_dialogs+216)
	sta     (sp),y
	lda     #$18
	ldy     #$00
	sta     (sp),y
	ldx     #$20
	lda     #$27
	jsr     _multi_vram_buffer_horz
;
; multi_vram_buffer_horz(dialogs[10], DIALOG_LENGTH, NTADR_A(7, 2));
;
	jsr     decsp3
	lda     #<(_dialogs+240)
	ldy     #$01
	sta     (sp),y
	iny
	lda     #>(_dialogs+240)
	sta     (sp),y
	lda     #$18
	ldy     #$00
	sta     (sp),y
	ldx     #$20
	lda     #$47
	jsr     _multi_vram_buffer_horz
;
; multi_vram_buffer_horz(dialogs[11], DIALOG_LENGTH, NTADR_A(7, 3));
;
	jsr     decsp3
	lda     #<(_dialogs+264)
	ldy     #$01
	sta     (sp),y
	iny
	lda     #>(_dialogs+264)
	sta     (sp),y
	lda     #$18
	ldy     #$00
	sta     (sp),y
	ldx     #$20
	lda     #$67
	jsr     _multi_vram_buffer_horz
;
; ++story_step;
;
	inc     _story_step
;
; break;
;
	jmp     L0050
;
; wait_input();
;
L0031:	jsr     _wait_input
;
; break;
;
	jmp     L0050
;
; brightout();
;
L0032:	jsr     _brightout
;
; break;
;
	jmp     L0050
;
; pal_bright(4);
;
L004C:	lda     #$04
	jsr     _pal_bright
;
; show_HUD();
;
	jsr     _show_HUD
;
; actors.counter[6] = 250;
;
	lda     #$FA
	sta     _actors+198
;
; actors.counter[7] = 250;
;
	sta     _actors+199
;
; ++story_step;
;
	inc     _story_step
;
; game_state = MAIN;
;
	lda     #$01
	sta     _game_state
;
; break;
;
	jmp     L0050
;
; wait(64);
;
L004D:	lda     #$40
	jsr     _wait
;
; break;
;
	jmp     L0050
;
; if (actors.state[CROW] != FLYING){
;
L004E:	lda     _actors+236
	beq     L0050
;
; one_vram_buffer(0x11, NTADR_A(15,9));
;
	lda     #$11
	jsr     pusha
	ldx     #$21
	lda     #$2F
	jsr     _one_vram_buffer
;
; one_vram_buffer(0x11, NTADR_A(16,9));
;
	lda     #$11
	jsr     pusha
	ldx     #$21
	lda     #$30
	jsr     _one_vram_buffer
;
; actors.state[DOOR] = TURNING;
;
	lda     #$01
	sta     _actors+237
;
; ++story_step;
;
	inc     _story_step
;
; break;
;
	jmp     L0050
;
; wait(64);
;
L004F:	lda     #$40
	jsr     _wait
;
; break;
;
	jmp     L0050
;
; fadeout();
;
L0038:	jsr     _fadeout
;
; ++story_counter;
;
L0050:	inc     _story_counter
;
; if (wait_timer == 127){
;
	lda     _wait_timer
	cmp     #$7F
	bne     L0051
;
; wait_timer = 0;
;
	lda     #$00
	sta     _wait_timer
;
; ++wait_timer;
;
L0051:	inc     _wait_timer
;
; }
;
	rts

.endproc

; ---------------------------------------------------------------
; void __near__ main (void)
; ---------------------------------------------------------------

.segment	"CODE"

.proc	_main: near

.segment	"CODE"

;
; ppu_off();
;
	jsr     _ppu_off
;
; disable_irq();
;
	jsr     _disable_irq
;
; memfill(wram_array, 0, 0x2000);
;
	jsr     decsp3
	lda     #<(_wram_array)
	ldy     #$01
	sta     (sp),y
	iny
	lda     #>(_wram_array)
	sta     (sp),y
	lda     #$00
	tay
	sta     (sp),y
	ldx     #$20
	jsr     _memfill
;
; banked_call(0, init_levels);
;
	lda     #$00
	jsr     pusha
	lda     #<(_init_levels)
	ldx     #>(_init_levels)
	jsr     _banked_call
;
; set_scroll_y(0xff);  // shift the bg down 1 pixel
;
	ldx     #$00
	lda     #$FF
	jsr     _set_scroll_y
;
; set_vram_buffer();
;
	jsr     _set_vram_buffer
;
; load_title_screen();
;
	jsr     _load_title_screen
;
; load_map();
;
	jsr     _load_map
;
; bank_spr(1);
;
	lda     #$01
	jsr     _bank_spr
;
; ppu_on_all();
;
	jsr     _ppu_on_all
;
; ppu_wait_nmi();
;
L0002:	jsr     _ppu_wait_nmi
;
; pad1 = pad_poll(0);
;
	lda     #$00
	jsr     _pad_poll
	sta     _pad1
;
; pad1_new = get_pad_new(0);
;
	lda     #$00
	jsr     _get_pad_new
	sta     _pad1_new
;
; if (game_state == TITLE && pad1_new & PAD_START) {
;
	lda     _game_state
	bne     L0016
	lda     _pad1_new
	and     #$10
	beq     L0016
;
; game_state = STORY;
;
	lda     #$02
	sta     _game_state
;
; current_level = 0;
;
	lda     #$00
	sta     _current_level
;
; story_step = 0;
;
	sta     _story_step
;
; load_level();
;
	jsr     _load_level
;
; } else if (game_state == MAP && pad1_new & PAD_START) {
;
	jmp     L0002
L0016:	lda     _game_state
	cmp     #$03
	bne     L0019
	lda     _pad1_new
	and     #$10
	beq     L0019
;
; hide_map();
;
	jsr     _hide_map
;
; game_state = MAIN;
;
	lda     #$01
	sta     _game_state
;
; } else if (game_state == STORY) {
;
	jmp     L0002
L0019:	lda     _game_state
	cmp     #$02
	bne     L001A
;
; play_story();
;
	jsr     _play_story
;
; } else if (game_state == MAIN) {
;
	jmp     L0002
L001A:	lda     _game_state
	cmp     #$01
	bne     L0002
;
; check_main_input();
;
	jsr     _check_main_input
;
; update_skull();
;
	jsr     _update_skull
;
; draw_sprites();
;
	jsr     _draw_sprites
;
; if (brick_counter == 0) {
;
	lda     _brick_counter
	bne     L001B
;
; game_state = STORY;
;
	lda     #$02
	sta     _game_state
;
; if (game_state == MAP) {
;
L001B:	lda     _game_state
	cmp     #$03
	bne     L0002
;
; show_map();
;
	jsr     _show_map
;
; while (1) {
;
	jmp     L0002

.endproc

