;
; File generated by cc65 v 2.19 - Git 4f87c7c
;
	.fopt		compiler,"cc65 v 2.19 - Git 4f87c7c"
	.setcpu		"6502"
	.smart		on
	.autoimport	on
	.case		on
	.debuginfo	off
	.importzp	sp, sreg, regsave, regbank
	.importzp	tmp1, tmp2, tmp3, tmp4, ptr1, ptr2, ptr3, ptr4
	.macpack	longbranch
	.forceimport	__STARTUP__
	.import		_set_vram_buffer
	.import		_one_vram_buffer
	.import		_get_pad_new
	.import		_pal_bg
	.import		_pal_spr
	.import		_ppu_wait_nmi
	.import		_ppu_off
	.import		_ppu_on_all
	.import		_oam_clear
	.import		_oam_meta_spr
	.import		_pad_poll
	.import		_bank_spr
	.import		_vram_adr
	.import		_vram_fill
	.import		_vram_unrle
	.import		_memcpy
	.export		_forest_col_01
	.export		_forest_level_01
	.export		_title_screen
	.export		_PaddleSpr
	.export		_SkullSpr
	.export		_pal_forest_bg
	.export		_pal_spr_01
	.export		_level_list
	.export		_debug1
	.export		_debug2
	.export		_pad1
	.export		_pad1_new
	.export		_c_map
	.export		_collision_index
	.export		_nametable_index
	.export		_backup_col_index
	.export		_backup_nt_index
	.export		_collision_mask
	.export		_backup_col_mask
	.export		_i
	.export		_j
	.export		_temp
	.export		_temp_x
	.export		_temp_y
	.export		_collision_type
	.export		_backup_col_type
	.export		_skull_launched
	.export		_p1_health
	.export		_p1_max_health
	.export		_game_state
	.export		_current_level
	.export		_Paddle
	.export		_Skull
	.export		_update_health
	.export		_show_HUD
	.export		_show_title_screen
	.export		_show_game_over
	.export		_show_screen
	.export		_load_title_screen
	.export		_remove_brick
	.export		_hit_brick
	.export		_set_collision_data
	.export		_backup_collision_info
	.export		_do_collision
	.export		_check_paddle_input
	.export		_update_skull
	.export		_draw_sprites
	.export		_main

.segment	"DATA"

_Paddle:
	.byte	$75
	.byte	$CF
	.byte	$1F
	.byte	$07
	.byte	$00
	.byte	$01
	.byte	$00
	.byte	$00
	.res	1,$00
_Skull:
	.byte	$FF
	.byte	$FF
	.byte	$07
	.byte	$07
	.byte	$02
	.byte	$02
	.byte	$00
	.byte	$00
	.res	1,$00

.segment	"RODATA"

_forest_col_01:
	.byte	$11
	.byte	$11
	.byte	$11
	.byte	$11
	.byte	$11
	.byte	$11
	.byte	$11
	.byte	$11
	.byte	$11
	.byte	$11
	.byte	$11
	.byte	$11
	.byte	$11
	.byte	$11
	.byte	$11
	.byte	$11
	.byte	$11
	.byte	$11
	.byte	$11
	.byte	$11
	.byte	$11
	.byte	$11
	.byte	$11
	.byte	$11
	.byte	$11
	.byte	$11
	.byte	$11
	.byte	$11
	.byte	$11
	.byte	$11
	.byte	$11
	.byte	$11
	.byte	$11
	.byte	$11
	.byte	$11
	.byte	$11
	.byte	$11
	.byte	$11
	.byte	$11
	.byte	$11
	.byte	$11
	.byte	$11
	.byte	$11
	.byte	$11
	.byte	$11
	.byte	$11
	.byte	$11
	.byte	$11
	.byte	$11
	.byte	$11
	.byte	$00
	.byte	$00
	.byte	$00
	.byte	$00
	.byte	$11
	.byte	$11
	.byte	$11
	.byte	$11
	.byte	$00
	.byte	$00
	.byte	$00
	.byte	$00
	.byte	$11
	.byte	$11
	.byte	$11
	.byte	$11
	.byte	$06
	.byte	$66
	.byte	$66
	.byte	$60
	.byte	$11
	.byte	$11
	.byte	$11
	.byte	$11
	.byte	$06
	.byte	$66
	.byte	$66
	.byte	$60
	.byte	$11
	.byte	$11
	.byte	$11
	.byte	$11
	.byte	$06
	.byte	$66
	.byte	$66
	.byte	$60
	.byte	$00
	.byte	$00
	.byte	$00
	.byte	$00
	.byte	$06
	.byte	$66
	.byte	$66
	.byte	$60
	.byte	$11
	.byte	$11
	.byte	$11
	.byte	$11
	.byte	$00
	.byte	$00
	.byte	$00
	.byte	$00
	.byte	$00
	.byte	$00
	.byte	$00
	.byte	$00
	.byte	$00
	.byte	$00
	.byte	$00
	.byte	$00
	.byte	$11
	.byte	$11
	.byte	$11
	.byte	$11
	.byte	$11
	.byte	$00
	.byte	$00
	.byte	$00
	.byte	$00
	.byte	$00
	.byte	$00
	.byte	$00
	.byte	$00
	.byte	$00
	.byte	$00
	.byte	$11
	.byte	$11
	.byte	$11
	.byte	$11
	.byte	$11
	.byte	$11
	.byte	$10
	.byte	$00
	.byte	$00
	.byte	$00
	.byte	$00
	.byte	$00
	.byte	$00
	.byte	$00
	.byte	$00
	.byte	$01
	.byte	$11
	.byte	$11
	.byte	$11
	.byte	$11
	.byte	$11
	.byte	$11
	.byte	$11
	.byte	$34
	.byte	$34
	.byte	$34
	.byte	$34
	.byte	$34
	.byte	$34
	.byte	$34
	.byte	$34
	.byte	$11
	.byte	$11
	.byte	$11
	.byte	$11
	.byte	$11
	.byte	$11
	.byte	$11
	.byte	$11
	.byte	$34
	.byte	$34
	.byte	$34
	.byte	$34
	.byte	$34
	.byte	$34
	.byte	$34
	.byte	$34
	.byte	$11
	.byte	$11
	.byte	$11
	.byte	$11
	.byte	$11
	.byte	$11
	.byte	$11
	.byte	$11
	.byte	$34
	.byte	$34
	.byte	$34
	.byte	$34
	.byte	$34
	.byte	$34
	.byte	$34
	.byte	$34
	.byte	$11
	.byte	$11
	.byte	$11
	.byte	$11
	.byte	$11
	.byte	$11
	.byte	$11
	.byte	$10
	.byte	$00
	.byte	$00
	.byte	$00
	.byte	$00
	.byte	$00
	.byte	$00
	.byte	$00
	.byte	$00
	.byte	$01
	.byte	$11
	.byte	$11
	.byte	$11
	.byte	$11
	.byte	$11
	.byte	$11
	.byte	$00
	.byte	$00
	.byte	$00
	.byte	$00
	.byte	$00
	.byte	$00
	.byte	$00
	.byte	$00
	.byte	$00
	.byte	$00
	.byte	$11
	.byte	$11
	.byte	$11
	.byte	$11
	.byte	$11
	.byte	$11
	.byte	$00
	.byte	$66
	.byte	$66
	.byte	$66
	.byte	$66
	.byte	$66
	.byte	$66
	.byte	$66
	.byte	$66
	.byte	$00
	.byte	$11
	.byte	$11
	.byte	$11
	.byte	$11
	.byte	$11
	.byte	$00
	.byte	$00
	.byte	$66
	.byte	$66
	.byte	$66
	.byte	$66
	.byte	$66
	.byte	$66
	.byte	$66
	.byte	$66
	.byte	$00
	.byte	$00
	.byte	$11
	.byte	$11
	.byte	$11
	.byte	$11
	.byte	$00
	.byte	$00
	.byte	$55
	.byte	$55
	.byte	$55
	.byte	$55
	.byte	$55
	.byte	$55
	.byte	$55
	.byte	$55
	.byte	$00
	.byte	$00
	.byte	$11
	.byte	$11
	.byte	$11
	.byte	$11
	.byte	$00
	.byte	$00
	.byte	$00
	.byte	$00
	.byte	$00
	.byte	$00
	.byte	$00
	.byte	$00
	.byte	$00
	.byte	$00
	.byte	$00
	.byte	$00
	.byte	$11
	.byte	$11
	.byte	$11
	.byte	$11
	.byte	$00
	.byte	$00
	.byte	$00
	.byte	$00
	.byte	$00
	.byte	$00
	.byte	$00
	.byte	$00
	.byte	$00
	.byte	$00
	.byte	$00
	.byte	$00
	.byte	$11
	.byte	$11
	.byte	$11
	.byte	$11
	.byte	$00
	.byte	$00
	.byte	$00
	.byte	$00
	.byte	$00
	.byte	$00
	.byte	$00
	.byte	$00
	.byte	$00
	.byte	$00
	.byte	$00
	.byte	$00
	.byte	$11
	.byte	$11
	.byte	$11
	.byte	$11
	.byte	$00
	.byte	$00
	.byte	$00
	.byte	$00
	.byte	$00
	.byte	$00
	.byte	$00
	.byte	$00
	.byte	$00
	.byte	$00
	.byte	$00
	.byte	$00
	.byte	$11
	.byte	$11
	.byte	$11
	.byte	$11
	.byte	$00
	.byte	$00
	.byte	$00
	.byte	$00
	.byte	$00
	.byte	$00
	.byte	$00
	.byte	$00
	.byte	$00
	.byte	$00
	.byte	$00
	.byte	$00
	.byte	$11
	.byte	$11
	.byte	$11
	.byte	$11
	.byte	$22
	.byte	$22
	.byte	$22
	.byte	$22
	.byte	$22
	.byte	$22
	.byte	$22
	.byte	$22
	.byte	$22
	.byte	$22
	.byte	$22
	.byte	$22
	.byte	$11
	.byte	$11
_forest_level_01:
	.byte	$01
	.byte	$00
	.byte	$01
	.byte	$A0
	.byte	$05
	.byte	$05
	.byte	$09
	.byte	$18
	.byte	$19
	.byte	$18
	.byte	$19
	.byte	$18
	.byte	$19
	.byte	$18
	.byte	$19
	.byte	$18
	.byte	$19
	.byte	$18
	.byte	$19
	.byte	$18
	.byte	$19
	.byte	$18
	.byte	$19
	.byte	$18
	.byte	$19
	.byte	$18
	.byte	$19
	.byte	$18
	.byte	$19
	.byte	$18
	.byte	$19
	.byte	$08
	.byte	$08
	.byte	$05
	.byte	$00
	.byte	$00
	.byte	$05
	.byte	$05
	.byte	$19
	.byte	$06
	.byte	$07
	.byte	$06
	.byte	$07
	.byte	$06
	.byte	$07
	.byte	$06
	.byte	$07
	.byte	$08
	.byte	$09
	.byte	$08
	.byte	$09
	.byte	$08
	.byte	$09
	.byte	$08
	.byte	$09
	.byte	$06
	.byte	$07
	.byte	$06
	.byte	$07
	.byte	$06
	.byte	$07
	.byte	$06
	.byte	$07
	.byte	$18
	.byte	$18
	.byte	$05
	.byte	$00
	.byte	$00
	.byte	$05
	.byte	$05
	.byte	$09
	.byte	$16
	.byte	$17
	.byte	$16
	.byte	$17
	.byte	$16
	.byte	$17
	.byte	$16
	.byte	$17
	.byte	$18
	.byte	$19
	.byte	$18
	.byte	$19
	.byte	$18
	.byte	$19
	.byte	$18
	.byte	$19
	.byte	$16
	.byte	$17
	.byte	$16
	.byte	$17
	.byte	$16
	.byte	$17
	.byte	$16
	.byte	$17
	.byte	$16
	.byte	$05
	.byte	$05
	.byte	$00
	.byte	$00
	.byte	$05
	.byte	$05
	.byte	$19
	.byte	$10
	.byte	$01
	.byte	$07
	.byte	$06
	.byte	$07
	.byte	$06
	.byte	$07
	.byte	$06
	.byte	$07
	.byte	$06
	.byte	$07
	.byte	$10
	.byte	$01
	.byte	$07
	.byte	$08
	.byte	$05
	.byte	$05
	.byte	$00
	.byte	$00
	.byte	$05
	.byte	$05
	.byte	$09
	.byte	$10
	.byte	$02
	.byte	$03
	.byte	$02
	.byte	$03
	.byte	$02
	.byte	$03
	.byte	$10
	.byte	$16
	.byte	$17
	.byte	$16
	.byte	$17
	.byte	$16
	.byte	$17
	.byte	$16
	.byte	$17
	.byte	$10
	.byte	$02
	.byte	$03
	.byte	$02
	.byte	$03
	.byte	$02
	.byte	$03
	.byte	$10
	.byte	$18
	.byte	$05
	.byte	$05
	.byte	$00
	.byte	$00
	.byte	$05
	.byte	$05
	.byte	$19
	.byte	$10
	.byte	$12
	.byte	$13
	.byte	$12
	.byte	$13
	.byte	$12
	.byte	$13
	.byte	$10
	.byte	$01
	.byte	$09
	.byte	$12
	.byte	$13
	.byte	$12
	.byte	$13
	.byte	$12
	.byte	$13
	.byte	$10
	.byte	$08
	.byte	$05
	.byte	$05
	.byte	$00
	.byte	$00
	.byte	$05
	.byte	$05
	.byte	$09
	.byte	$10
	.byte	$01
	.byte	$02
	.byte	$11
	.byte	$01
	.byte	$11
	.byte	$10
	.byte	$01
	.byte	$02
	.byte	$18
	.byte	$05
	.byte	$05
	.byte	$00
	.byte	$00
	.byte	$05
	.byte	$01
	.byte	$02
	.byte	$08
	.byte	$09
	.byte	$10
	.byte	$10
	.byte	$11
	.byte	$01
	.byte	$0F
	.byte	$10
	.byte	$10
	.byte	$08
	.byte	$09
	.byte	$05
	.byte	$01
	.byte	$02
	.byte	$00
	.byte	$00
	.byte	$05
	.byte	$05
	.byte	$08
	.byte	$18
	.byte	$19
	.byte	$09
	.byte	$10
	.byte	$01
	.byte	$11
	.byte	$08
	.byte	$18
	.byte	$19
	.byte	$09
	.byte	$05
	.byte	$05
	.byte	$00
	.byte	$00
	.byte	$05
	.byte	$08
	.byte	$18
	.byte	$08
	.byte	$09
	.byte	$19
	.byte	$09
	.byte	$14
	.byte	$15
	.byte	$14
	.byte	$15
	.byte	$14
	.byte	$15
	.byte	$14
	.byte	$15
	.byte	$14
	.byte	$15
	.byte	$14
	.byte	$15
	.byte	$14
	.byte	$15
	.byte	$14
	.byte	$15
	.byte	$08
	.byte	$18
	.byte	$08
	.byte	$09
	.byte	$19
	.byte	$09
	.byte	$05
	.byte	$00
	.byte	$00
	.byte	$05
	.byte	$18
	.byte	$08
	.byte	$18
	.byte	$19
	.byte	$09
	.byte	$19
	.byte	$14
	.byte	$15
	.byte	$14
	.byte	$15
	.byte	$14
	.byte	$15
	.byte	$14
	.byte	$15
	.byte	$14
	.byte	$15
	.byte	$14
	.byte	$15
	.byte	$14
	.byte	$15
	.byte	$14
	.byte	$15
	.byte	$18
	.byte	$08
	.byte	$18
	.byte	$19
	.byte	$09
	.byte	$19
	.byte	$05
	.byte	$00
	.byte	$00
	.byte	$05
	.byte	$08
	.byte	$18
	.byte	$08
	.byte	$09
	.byte	$19
	.byte	$09
	.byte	$14
	.byte	$15
	.byte	$14
	.byte	$15
	.byte	$14
	.byte	$15
	.byte	$14
	.byte	$15
	.byte	$14
	.byte	$15
	.byte	$14
	.byte	$15
	.byte	$14
	.byte	$15
	.byte	$14
	.byte	$15
	.byte	$08
	.byte	$18
	.byte	$08
	.byte	$09
	.byte	$19
	.byte	$09
	.byte	$05
	.byte	$00
	.byte	$00
	.byte	$05
	.byte	$05
	.byte	$08
	.byte	$18
	.byte	$19
	.byte	$09
	.byte	$10
	.byte	$01
	.byte	$11
	.byte	$08
	.byte	$18
	.byte	$19
	.byte	$09
	.byte	$05
	.byte	$05
	.byte	$00
	.byte	$00
	.byte	$05
	.byte	$01
	.byte	$02
	.byte	$06
	.byte	$07
	.byte	$10
	.byte	$10
	.byte	$11
	.byte	$01
	.byte	$0F
	.byte	$10
	.byte	$10
	.byte	$06
	.byte	$07
	.byte	$05
	.byte	$01
	.byte	$02
	.byte	$00
	.byte	$00
	.byte	$05
	.byte	$01
	.byte	$02
	.byte	$16
	.byte	$17
	.byte	$10
	.byte	$11
	.byte	$02
	.byte	$03
	.byte	$02
	.byte	$03
	.byte	$02
	.byte	$03
	.byte	$02
	.byte	$03
	.byte	$02
	.byte	$03
	.byte	$02
	.byte	$03
	.byte	$02
	.byte	$03
	.byte	$02
	.byte	$03
	.byte	$11
	.byte	$10
	.byte	$16
	.byte	$17
	.byte	$05
	.byte	$01
	.byte	$02
	.byte	$00
	.byte	$00
	.byte	$05
	.byte	$05
	.byte	$09
	.byte	$10
	.byte	$01
	.byte	$02
	.byte	$11
	.byte	$12
	.byte	$13
	.byte	$12
	.byte	$13
	.byte	$12
	.byte	$13
	.byte	$12
	.byte	$13
	.byte	$12
	.byte	$13
	.byte	$12
	.byte	$13
	.byte	$12
	.byte	$13
	.byte	$12
	.byte	$13
	.byte	$11
	.byte	$10
	.byte	$01
	.byte	$02
	.byte	$08
	.byte	$05
	.byte	$05
	.byte	$00
	.byte	$00
	.byte	$05
	.byte	$05
	.byte	$19
	.byte	$10
	.byte	$11
	.byte	$01
	.byte	$02
	.byte	$04
	.byte	$01
	.byte	$0F
	.byte	$11
	.byte	$01
	.byte	$02
	.byte	$10
	.byte	$18
	.byte	$05
	.byte	$05
	.byte	$00
	.byte	$00
	.byte	$05
	.byte	$05
	.byte	$09
	.byte	$10
	.byte	$11
	.byte	$01
	.byte	$15
	.byte	$10
	.byte	$08
	.byte	$05
	.byte	$05
	.byte	$00
	.byte	$00
	.byte	$05
	.byte	$05
	.byte	$19
	.byte	$10
	.byte	$11
	.byte	$01
	.byte	$15
	.byte	$10
	.byte	$18
	.byte	$05
	.byte	$05
	.byte	$00
	.byte	$00
	.byte	$05
	.byte	$05
	.byte	$09
	.byte	$10
	.byte	$11
	.byte	$01
	.byte	$15
	.byte	$10
	.byte	$08
	.byte	$05
	.byte	$05
	.byte	$00
	.byte	$00
	.byte	$05
	.byte	$05
	.byte	$19
	.byte	$10
	.byte	$11
	.byte	$01
	.byte	$15
	.byte	$10
	.byte	$18
	.byte	$05
	.byte	$05
	.byte	$00
	.byte	$00
	.byte	$05
	.byte	$05
	.byte	$09
	.byte	$10
	.byte	$01
	.byte	$17
	.byte	$08
	.byte	$05
	.byte	$05
	.byte	$00
	.byte	$00
	.byte	$05
	.byte	$05
	.byte	$19
	.byte	$1A
	.byte	$1B
	.byte	$1A
	.byte	$1B
	.byte	$1A
	.byte	$1B
	.byte	$1A
	.byte	$1B
	.byte	$1A
	.byte	$1B
	.byte	$1A
	.byte	$1B
	.byte	$1A
	.byte	$1B
	.byte	$1A
	.byte	$1B
	.byte	$1A
	.byte	$1B
	.byte	$1A
	.byte	$1B
	.byte	$1A
	.byte	$1B
	.byte	$1A
	.byte	$1B
	.byte	$18
	.byte	$05
	.byte	$05
	.byte	$00
	.byte	$00
	.byte	$05
	.byte	$01
	.byte	$1D
	.byte	$00
	.byte	$01
	.byte	$20
	.byte	$55
	.byte	$01
	.byte	$06
	.byte	$51
	.byte	$55
	.byte	$A5
	.byte	$A5
	.byte	$55
	.byte	$55
	.byte	$A5
	.byte	$A5
	.byte	$55
	.byte	$01
	.byte	$03
	.byte	$5A
	.byte	$5A
	.byte	$55
	.byte	$01
	.byte	$04
	.byte	$F5
	.byte	$01
	.byte	$03
	.byte	$55
	.byte	$01
	.byte	$02
	.byte	$65
	.byte	$5F
	.byte	$01
	.byte	$03
	.byte	$95
	.byte	$55
	.byte	$01
	.byte	$09
	.byte	$F5
	.byte	$01
	.byte	$05
	.byte	$55
	.byte	$05
	.byte	$01
	.byte	$06
	.byte	$05
	.byte	$01
	.byte	$00
_title_screen:
	.byte	$01
	.byte	$00
	.byte	$01
	.byte	$FE
	.byte	$00
	.byte	$01
	.byte	$29
	.byte	$53
	.byte	$6B
	.byte	$75
	.byte	$6C
	.byte	$6C
	.byte	$00
	.byte	$01
	.byte	$03
	.byte	$51
	.byte	$75
	.byte	$65
	.byte	$73
	.byte	$74
	.byte	$00
	.byte	$01
	.byte	$B3
	.byte	$50
	.byte	$72
	.byte	$65
	.byte	$73
	.byte	$73
	.byte	$00
	.byte	$53
	.byte	$74
	.byte	$61
	.byte	$72
	.byte	$74
	.byte	$00
	.byte	$01
	.byte	$FE
	.byte	$00
	.byte	$01
	.byte	$32
	.byte	$54
	.byte	$68
	.byte	$65
	.byte	$00
	.byte	$6F
	.byte	$6C
	.byte	$64
	.byte	$00
	.byte	$67
	.byte	$61
	.byte	$6D
	.byte	$65
	.byte	$00
	.byte	$6D
	.byte	$61
	.byte	$6B
	.byte	$65
	.byte	$72
	.byte	$00
	.byte	$01
	.byte	$33
	.byte	$40
	.byte	$32
	.byte	$30
	.byte	$32
	.byte	$32
	.byte	$00
	.byte	$01
	.byte	$8B
	.byte	$00
	.byte	$01
	.byte	$00
_PaddleSpr:
	.byte	$00
	.byte	$00
	.byte	$00
	.byte	$00
	.byte	$08
	.byte	$00
	.byte	$00
	.byte	$00
	.byte	$10
	.byte	$00
	.byte	$00
	.byte	$00
	.byte	$18
	.byte	$00
	.byte	$00
	.byte	$00
	.byte	$80
_SkullSpr:
	.byte	$00
	.byte	$00
	.byte	$01
	.byte	$00
	.byte	$80
_pal_forest_bg:
	.byte	$0F
	.byte	$15
	.byte	$20
	.byte	$09
	.byte	$0F
	.byte	$29
	.byte	$1A
	.byte	$09
	.byte	$0F
	.byte	$08
	.byte	$17
	.byte	$27
	.byte	$0F
	.byte	$37
	.byte	$17
	.byte	$09
_pal_spr_01:
	.byte	$0F
	.byte	$20
	.byte	$15
	.byte	$12
	.byte	$0F
	.byte	$11
	.byte	$22
	.byte	$32
	.byte	$0F
	.byte	$13
	.byte	$23
	.byte	$33
	.byte	$0F
	.byte	$14
	.byte	$24
	.byte	$34
_level_list:
	.addr	_forest_level_01
	.addr	_forest_col_01
	.addr	_pal_forest_bg

.segment	"BSS"

_debug1:
	.res	1,$00
_debug2:
	.res	1,$00
_pad1:
	.res	1,$00
_pad1_new:
	.res	1,$00
_c_map:
	.res	368,$00
_collision_index:
	.res	2,$00
_nametable_index:
	.res	2,$00
_backup_col_index:
	.res	2,$00
_backup_nt_index:
	.res	2,$00
_collision_mask:
	.res	1,$00
_backup_col_mask:
	.res	1,$00
_i:
	.res	1,$00
_j:
	.res	1,$00
_temp:
	.res	1,$00
_temp_x:
	.res	1,$00
_temp_y:
	.res	1,$00
_collision_type:
	.res	1,$00
_backup_col_type:
	.res	1,$00
_skull_launched:
	.res	1,$00
_p1_health:
	.res	1,$00
_p1_max_health:
	.res	1,$00
_game_state:
	.res	1,$00
_current_level:
	.res	1,$00

; ---------------------------------------------------------------
; void __near__ update_health (void)
; ---------------------------------------------------------------

.segment	"CODE"

.proc	_update_health: near

.segment	"CODE"

;
; if (p1_health) {
;
	lda     _p1_health
	beq     L0002
;
; for (i = 0; i < p1_max_health; ++i) {
;
	lda     #$00
	sta     _i
L000B:	lda     _i
	cmp     _p1_max_health
	bcs     L0002
;
; one_vram_buffer((i > p1_health) ? TILE_HEART_EMPTY : TILE_HEART_FULL, NTADR_A(i + 2, 2));
;
	cmp     _p1_health
	bcc     L000C
	beq     L000C
	lda     #$5C
	jmp     L000D
L000C:	lda     #$5B
L000D:	jsr     pusha
	ldx     #$00
	lda     _i
	clc
	adc     #$02
	bcc     L0009
	inx
L0009:	ora     #$40
	pha
	txa
	ora     #$20
	tax
	pla
	jsr     _one_vram_buffer
;
; for (i = 0; i < p1_max_health; ++i) {
;
	inc     _i
	jmp     L000B
;
; }
;
L0002:	rts

.endproc

; ---------------------------------------------------------------
; void __near__ show_HUD (void)
; ---------------------------------------------------------------

.segment	"CODE"

.proc	_show_HUD: near

.segment	"CODE"

;
; vram_adr(0x23C0);
;
	ldx     #$23
	lda     #$C0
	jsr     _vram_adr
;
; vram_fill(0x00, 8);
;
	lda     #$00
	jsr     pusha
	tax
	lda     #$08
	jsr     _vram_fill
;
; update_health();
;
	jsr     _update_health
;
; one_vram_buffer(0x5d, NTADR_A(22, 2));
;
	lda     #$5D
	jsr     pusha
	ldx     #$20
	lda     #$56
	jsr     _one_vram_buffer
;
; one_vram_buffer(0x5e, NTADR_A(23, 2));
;
	lda     #$5E
	jsr     pusha
	ldx     #$20
	lda     #$57
	jsr     _one_vram_buffer
;
; one_vram_buffer(0x5f, NTADR_A(24, 2));
;
	lda     #$5F
	jsr     pusha
	ldx     #$20
	lda     #$58
	jsr     _one_vram_buffer
;
; one_vram_buffer(0x7e, NTADR_A(23, 3));
;
	lda     #$7E
	jsr     pusha
	ldx     #$20
	lda     #$77
	jsr     _one_vram_buffer
;
; one_vram_buffer(0x7f, NTADR_A(24, 3));
;
	lda     #$7F
	jsr     pusha
	ldx     #$20
	lda     #$78
	jmp     _one_vram_buffer

.endproc

; ---------------------------------------------------------------
; void __near__ show_title_screen (void)
; ---------------------------------------------------------------

.segment	"CODE"

.proc	_show_title_screen: near

.segment	"CODE"

;
; }
;
	rts

.endproc

; ---------------------------------------------------------------
; void __near__ show_game_over (void)
; ---------------------------------------------------------------

.segment	"CODE"

.proc	_show_game_over: near

.segment	"CODE"

;
; }
;
	rts

.endproc

; ---------------------------------------------------------------
; void __near__ show_screen (void)
; ---------------------------------------------------------------

.segment	"CODE"

.proc	_show_screen: near

.segment	"CODE"

;
; ppu_off();
;
	jsr     _ppu_off
;
; vram_adr(NAMETABLE_A);
;
	ldx     #$20
	lda     #$00
	jsr     _vram_adr
;
; vram_unrle(level_list[current_level]);
;
	ldx     #$00
	lda     _current_level
	asl     a
	bcc     L0005
	inx
	clc
L0005:	adc     #<(_level_list)
	sta     ptr1
	txa
	adc     #>(_level_list)
	sta     ptr1+1
	ldy     #$01
	lda     (ptr1),y
	tax
	dey
	lda     (ptr1),y
	jsr     _vram_unrle
;
; memcpy(c_map, level_list[current_level + 1], 368);
;
	lda     #<(_c_map)
	ldx     #>(_c_map)
	jsr     pushax
	ldx     #$00
	lda     _current_level
	clc
	adc     #$01
	bcc     L0002
	inx
L0002:	stx     tmp1
	asl     a
	rol     tmp1
	clc
	adc     #<(_level_list)
	sta     ptr1
	lda     tmp1
	adc     #>(_level_list)
	sta     ptr1+1
	ldy     #$01
	lda     (ptr1),y
	tax
	dey
	lda     (ptr1),y
	jsr     pushax
	ldx     #$01
	lda     #$70
	jsr     _memcpy
;
; ppu_on_all();
;
	jsr     _ppu_on_all
;
; if (game_state == MAIN) {
;
	lda     _game_state
	cmp     #$01
	bne     L0003
;
; show_HUD();
;
	jsr     _show_HUD
;
; skull_launched = FALSE;
;
	lda     #$00
	sta     _skull_launched
;
; }
;
L0003:	rts

.endproc

; ---------------------------------------------------------------
; void __near__ load_title_screen (void)
; ---------------------------------------------------------------

.segment	"CODE"

.proc	_load_title_screen: near

.segment	"CODE"

;
; pal_bg(pal_forest_bg);
;
	lda     #<(_pal_forest_bg)
	ldx     #>(_pal_forest_bg)
	jsr     _pal_bg
;
; pal_spr(pal_spr_01);
;
	lda     #<(_pal_spr_01)
	ldx     #>(_pal_spr_01)
	jsr     _pal_spr
;
; vram_adr(NAMETABLE_A);
;
	ldx     #$20
	lda     #$00
	jsr     _vram_adr
;
; vram_unrle(title_screen);
;
	lda     #<(_title_screen)
	ldx     #>(_title_screen)
	jsr     _vram_unrle
;
; game_state = TITLE;
;
	lda     #$00
	sta     _game_state
;
; }
;
	rts

.endproc

; ---------------------------------------------------------------
; void __near__ remove_brick (char tile_type)
; ---------------------------------------------------------------

.segment	"CODE"

.proc	_remove_brick: near

.segment	"CODE"

;
; void remove_brick(char tile_type) {
;
	jsr     pusha
;
; one_vram_buffer(tile_type, backup_nt_index);
;
	ldy     #$00
	lda     (sp),y
	jsr     pusha
	lda     _backup_nt_index
	ldx     _backup_nt_index+1
	jsr     _one_vram_buffer
;
; c_map[backup_col_index] &= backup_nt_index % 2 ? 0b11110000 : 0b00001111;
;
	lda     _backup_col_index
	clc
	adc     #<(_c_map)
	tay
	lda     _backup_col_index+1
	adc     #>(_c_map)
	tax
	tya
	jsr     pushax
	sta     ptr1
	stx     ptr1+1
	ldx     #$00
	lda     (ptr1,x)
	jsr     pusha0
	lda     _backup_nt_index
	ldx     _backup_nt_index+1
	jsr     pushax
	ldx     #$00
	lda     #$02
	jsr     tosmoda0
	stx     tmp1
	ora     tmp1
	beq     L0002
	lda     #$F0
	jmp     L0003
L0002:	lda     #$0F
L0003:	jsr     tosanda0
	ldy     #$00
	jsr     staspidx
;
; }
;
	jmp     incsp1

.endproc

; ---------------------------------------------------------------
; void __near__ hit_brick (char tile_type)
; ---------------------------------------------------------------

.segment	"CODE"

.proc	_hit_brick: near

.segment	"CODE"

;
; void hit_brick(char tile_type) {
;
	jsr     pusha
;
; remove_brick(tile_type);
;
	ldy     #$00
	lda     (sp),y
	jsr     _remove_brick
;
; }
;
	jmp     incsp1

.endproc

; ---------------------------------------------------------------
; char __near__ set_collision_data (char param_x, char param_y)
; ---------------------------------------------------------------

.segment	"CODE"

.proc	_set_collision_data: near

.segment	"CODE"

;
; char set_collision_data(char param_x, char param_y) {
;
	jsr     pusha
;
; collision_index = (param_x >> 4) + (((param_y >> 3) - 5) * 16);
;
	ldy     #$01
	lda     (sp),y
	lsr     a
	lsr     a
	lsr     a
	lsr     a
	jsr     pusha0
	ldy     #$02
	lda     (sp),y
	lsr     a
	lsr     a
	lsr     a
	sec
	sbc     #$05
	bcs     L0002
	ldx     #$FF
L0002:	jsr     aslax4
	jsr     tosaddax
	sta     _collision_index
	stx     _collision_index+1
;
; nametable_index = NTADR_A((param_x >> 3), (param_y >> 3));
;
	ldx     #$00
	lda     (sp,x)
	lsr     a
	lsr     a
	lsr     a
	jsr     aslax4
	stx     tmp1
	asl     a
	rol     tmp1
	ldx     tmp1
	jsr     pushax
	ldy     #$03
	lda     (sp),y
	lsr     a
	lsr     a
	lsr     a
	jsr     tosora0
	sta     _nametable_index
	txa
	ora     #$20
	sta     _nametable_index+1
;
; collision_type = (param_x >> 3) % 2 ? c_map[collision_index] & 0x0F : c_map[collision_index] >> 4;
;
	ldy     #$01
	lda     (sp),y
	lsr     a
	lsr     a
	lsr     a
	jsr     pusha0
	lda     #$02
	jsr     tosmoda0
	stx     tmp1
	ora     tmp1
	beq     L0003
	lda     _collision_index
	sta     ptr1
	lda     _collision_index+1
	clc
	adc     #>(_c_map)
	sta     ptr1+1
	ldy     #<(_c_map)
	lda     (ptr1),y
	and     #$0F
	jmp     L0005
L0003:	lda     _collision_index
	sta     ptr1
	lda     _collision_index+1
	clc
	adc     #>(_c_map)
	sta     ptr1+1
	ldy     #<(_c_map)
	lda     (ptr1),y
	lsr     a
	lsr     a
	lsr     a
	lsr     a
L0005:	sta     _collision_type
;
; return collision_type;
;
	ldx     #$00
	lda     _collision_type
;
; }
;
	jmp     incsp2

.endproc

; ---------------------------------------------------------------
; void __near__ backup_collision_info (void)
; ---------------------------------------------------------------

.segment	"CODE"

.proc	_backup_collision_info: near

.segment	"CODE"

;
; backup_col_index = collision_index;
;
	lda     _collision_index+1
	sta     _backup_col_index+1
	lda     _collision_index
	sta     _backup_col_index
;
; backup_nt_index = nametable_index;
;
	lda     _nametable_index+1
	sta     _backup_nt_index+1
	lda     _nametable_index
	sta     _backup_nt_index
;
; backup_col_type = collision_type;
;
	lda     _collision_type
	sta     _backup_col_type
;
; }
;
	rts

.endproc

; ---------------------------------------------------------------
; void __near__ do_collision (void)
; ---------------------------------------------------------------

.segment	"CODE"

.proc	_do_collision: near

.segment	"CODE"

;
; switch (backup_col_type) {
;
	lda     _backup_col_type
;
; }
;
	cmp     #$01
	beq     L0003
	cmp     #$02
	beq     L0015
	cmp     #$03
	beq     L0016
	cmp     #$04
	beq     L0017
	cmp     #$05
	beq     L0018
	cmp     #$06
	beq     L0019
	cmp     #$07
	beq     L0003
	cmp     #$08
	beq     L0003
	cmp     #$09
	beq     L0003
	cmp     #$0A
	beq     L0003
	cmp     #$0B
	beq     L0003
	cmp     #$0C
	beq     L0003
	cmp     #$0D
	beq     L0003
	cmp     #$0E
	beq     L0003
	cmp     #$0F
	beq     L0003
	rts
;
; --p1_health;
;
L0015:	dec     _p1_health
;
; update_health();
;
	jmp     _update_health
;
; remove_brick(TILE_BACK);
;
L0016:	lda     #$10
	jsr     _remove_brick
;
; ++backup_nt_index;
;
	inc     _backup_nt_index
	bne     L0007
	inc     _backup_nt_index+1
;
; hit_brick(TILE_BACK);
;
L0007:	lda     #$10
	jmp     _hit_brick
;
; remove_brick(TILE_BACK);
;
L0017:	lda     #$10
	jsr     _remove_brick
;
; --backup_nt_index;
;
	lda     _backup_nt_index
	sec
	sbc     #$01
	sta     _backup_nt_index
	bcs     L0009
	dec     _backup_nt_index+1
;
; hit_brick(TILE_BACK);
;
L0009:	lda     #$10
	jmp     _hit_brick
;
; hit_brick(0x11);
;
L0018:	lda     #$11
	jmp     _hit_brick
;
; hit_brick(0x11);
;
L0019:	lda     #$11
	jmp     _hit_brick
;
; }
;
L0003:	rts

.endproc

; ---------------------------------------------------------------
; void __near__ check_paddle_input (void)
; ---------------------------------------------------------------

.segment	"CODE"

.proc	_check_paddle_input: near

.segment	"CODE"

;
; if ((pad1 & PAD_LEFT) && (Paddle.xSpeed > -MAX_SPEED)) {
;
	lda     _pad1
	and     #$02
	beq     L002C
	lda     _Paddle+6
	sec
	sbc     #$FA
	bvs     L0005
	eor     #$80
L0005:	bpl     L002C
;
; Paddle.xSpeed -= 2;
;
	lda     _Paddle+6
	sec
	sbc     #$02
	sta     _Paddle+6
;
; if ((pad1 & PAD_RIGHT) && (Paddle.xSpeed < MAX_SPEED)) {
;
L002C:	lda     _pad1
	and     #$01
	beq     L0030
	lda     _Paddle+6
	sec
	sbc     #$07
	bvc     L000C
	eor     #$80
L000C:	bpl     L0030
;
; Paddle.xSpeed += 2;
;
	lda     #$02
	clc
	adc     _Paddle+6
	sta     _Paddle+6
;
; if (pad1 & PAD_A) {
;
L0030:	lda     _pad1
	and     #$80
	beq     L0031
;
; if (!skull_launched) {
;
	lda     _skull_launched
	bne     L0031
;
; skull_launched = TRUE;
;
	lda     #$01
	sta     _skull_launched
;
; Skull.xSpeed = 1;
;
	sta     _Skull+6
;
; Skull.ySpeed = -1;
;
	lda     #$FF
	sta     _Skull+7
;
; if (pad1 & PAD_B) {
;
L0031:	lda     _pad1
	ldx     #$00
	and     #$40
	stx     tmp1
	ora     tmp1
;
; temp_x = Paddle.x + Paddle.xSpeed;  // Bounding box?
;
	lda     _Paddle+6
	clc
	adc     _Paddle
	sta     _temp_x
;
; temp_y = Paddle.y;                  // Bounding box?
;
	lda     _Paddle+1
	sta     _temp_y
;
; if (Paddle.xSpeed > 0) {
;
	lda     _Paddle+6
	sec
	sbc     #$01
	bvs     L0016
	eor     #$80
L0016:	bpl     L0033
;
; while (set_collision_data(temp_x + Paddle.width, temp_y)) {
;
	jmp     L0032
;
; --temp_x;
;
L0017:	dec     _temp_x
;
; while (set_collision_data(temp_x + Paddle.width, temp_y)) {
;
L0032:	lda     _temp_x
	clc
	adc     _Paddle+2
	jsr     pusha
	lda     _temp_y
	jsr     _set_collision_data
	tax
	bne     L0017
;
; } else if (Paddle.xSpeed < 0) {
;
	jmp     L0035
L0033:	lda     _Paddle+6
	asl     a
	bcc     L0035
;
; while (set_collision_data(temp_x, temp_y)) {
;
	jmp     L0034
;
; ++temp_x;
;
L001D:	inc     _temp_x
;
; while (set_collision_data(temp_x, temp_y)) {
;
L0034:	lda     _temp_x
	jsr     pusha
	lda     _temp_y
	jsr     _set_collision_data
	tax
	bne     L001D
;
; Paddle.x = temp_x;
;
L0035:	lda     _temp_x
	sta     _Paddle
;
; if (Paddle.xSpeed) {
;
	lda     _Paddle+6
	beq     L0026
;
; Paddle.xSpeed += Paddle.xSpeed > 0 ? -1 : 1;
;
	sec
	sbc     #$01
	bvs     L0022
	eor     #$80
L0022:	bpl     L0036
	lda     #$FF
	jmp     L0024
L0036:	lda     #$01
L0024:	cmp     #$80
	clc
	adc     _Paddle+6
	sta     _Paddle+6
;
; }
;
L0026:	rts

.endproc

; ---------------------------------------------------------------
; void __near__ update_skull (void)
; ---------------------------------------------------------------

.segment	"CODE"

.proc	_update_skull: near

.segment	"CODE"

;
; if (skull_launched) {
;
	lda     _skull_launched
	jeq     L0002
;
; if (Skull.xSpeed == 0) {
;
	lda     _Skull+6
	bne     L0080
;
; ++Skull.xSpeed;
;
	inc     _Skull+6
;
; if (Skull.ySpeed == 0) {
;
L0080:	lda     _Skull+7
	bne     L0082
;
; ++Skull.ySpeed;
;
	inc     _Skull+7
;
; temp_x = Skull.x + Skull.xSpeed;
;
L0082:	lda     _Skull+6
	clc
	adc     _Skull
	sta     _temp_x
;
; temp_y = Skull.y + Skull.ySpeed;
;
	lda     _Skull+7
	clc
	adc     _Skull+1
	sta     _temp_y
;
; Skull.col_direction = 0;
;
	lda     #$00
	sta     _Skull+8
;
; if (Skull.xSpeed > 0) {
;
	lda     _Skull+6
	sec
	sbc     #$01
	bvs     L000D
	eor     #$80
L000D:	jpl     L008A
;
; if (Skull.ySpeed > 0) {
;
	lda     _Skull+7
	sec
	sbc     #$01
	bvs     L0010
	eor     #$80
L0010:	jpl     L0086
;
; if (set_collision_data(temp_x, temp_y + Skull.height)) {
;
	lda     _temp_x
	jsr     pusha
	lda     _temp_y
	clc
	adc     _Skull+3
	jsr     _set_collision_data
	tax
	beq     L0083
;
; Skull.col_direction |= PAD_DOWN;
;
	lda     _Skull+8
	ora     #$04
	sta     _Skull+8
;
; backup_collision_info();
;
	jsr     _backup_collision_info
;
; while (set_collision_data(temp_x, temp_y + Skull.height)) {
;
	jmp     L0014
;
; --temp_y;
;
L0012:	dec     _temp_y
;
; while (set_collision_data(temp_x, temp_y + Skull.height)) {
;
L0014:	lda     _temp_x
	jsr     pusha
	lda     _temp_y
	clc
	adc     _Skull+3
	jsr     _set_collision_data
	tax
	bne     L0012
;
; do_collision();
;
	jsr     _do_collision
;
; if (set_collision_data(temp_x + Skull.width, temp_y)) {
;
L0083:	lda     _temp_x
	clc
	adc     _Skull+2
	jsr     pusha
	lda     _temp_y
	jsr     _set_collision_data
	tax
	beq     L0084
;
; Skull.col_direction |= PAD_RIGHT;
;
	lda     _Skull+8
	ora     #$01
	sta     _Skull+8
;
; backup_collision_info();
;
	jsr     _backup_collision_info
;
; while (set_collision_data(temp_x + Skull.width, temp_y)) {
;
	jmp     L0018
;
; --temp_x;
;
L0016:	dec     _temp_x
;
; while (set_collision_data(temp_x + Skull.width, temp_y)) {
;
L0018:	lda     _temp_x
	clc
	adc     _Skull+2
	jsr     pusha
	lda     _temp_y
	jsr     _set_collision_data
	tax
	bne     L0016
;
; } else if (Skull.col_direction == 0 && set_collision_data(temp_x + Skull.width, temp_y + Skull.height)) {
;
	jmp     L007E
L0084:	lda     _Skull+8
	jne     L0092
	lda     _temp_x
	clc
	adc     _Skull+2
	jsr     pusha
	lda     _temp_y
	clc
	adc     _Skull+3
	jsr     _set_collision_data
	tax
	jeq     L0092
;
; Skull.col_direction |= PAD_DOWN;
;
	lda     _Skull+8
	ora     #$04
	sta     _Skull+8
;
; backup_collision_info();
;
	jsr     _backup_collision_info
;
; while (set_collision_data(temp_x + Skull.width, temp_y + Skull.height)) {
;
	jmp     L0020
;
; --temp_x;
;
L001E:	dec     _temp_x
;
; --temp_y;
;
	dec     _temp_y
;
; while (set_collision_data(temp_x + Skull.width, temp_y + Skull.height)) {
;
L0020:	lda     _temp_x
	clc
	adc     _Skull+2
	jsr     pusha
	lda     _temp_y
	clc
	adc     _Skull+3
	jsr     _set_collision_data
	tax
	bne     L001E
;
; } else {
;
	jmp     L007E
;
; if (set_collision_data(temp_x, temp_y)) {
;
L0086:	lda     _temp_x
	jsr     pusha
	lda     _temp_y
	jsr     _set_collision_data
	tax
	beq     L0087
;
; Skull.col_direction |= PAD_UP;
;
	lda     _Skull+8
	ora     #$08
	sta     _Skull+8
;
; backup_collision_info();
;
	jsr     _backup_collision_info
;
; while (set_collision_data(temp_x, temp_y)) {
;
	jmp     L0025
;
; ++temp_y;
;
L0023:	inc     _temp_y
;
; while (set_collision_data(temp_x, temp_y)) {
;
L0025:	lda     _temp_x
	jsr     pusha
	lda     _temp_y
	jsr     _set_collision_data
	tax
	bne     L0023
;
; do_collision();
;
	jsr     _do_collision
;
; if (set_collision_data(temp_x + Skull.width, temp_y + Skull.height)) {
;
L0087:	lda     _temp_x
	clc
	adc     _Skull+2
	jsr     pusha
	lda     _temp_y
	clc
	adc     _Skull+3
	jsr     _set_collision_data
	tax
	beq     L0088
;
; Skull.col_direction |= PAD_RIGHT;
;
	lda     _Skull+8
	ora     #$01
	sta     _Skull+8
;
; backup_collision_info();
;
	jsr     _backup_collision_info
;
; while (set_collision_data(temp_x + Skull.width, temp_y + Skull.height)) {
;
	jmp     L0029
;
; --temp_x;
;
L0027:	dec     _temp_x
;
; while (set_collision_data(temp_x + Skull.width, temp_y + Skull.height)) {
;
L0029:	lda     _temp_x
	clc
	adc     _Skull+2
	jsr     pusha
	lda     _temp_y
	clc
	adc     _Skull+3
	jsr     _set_collision_data
	tax
	bne     L0027
;
; } else if (Skull.col_direction == 0 && set_collision_data(temp_x + Skull.width, temp_y)) {
;
	jmp     L007E
L0088:	lda     _Skull+8
	jne     L0092
	lda     _temp_x
	clc
	adc     _Skull+2
	jsr     pusha
	lda     _temp_y
	jsr     _set_collision_data
	tax
	jeq     L0092
;
; Skull.col_direction |= PAD_RIGHT;
;
	lda     _Skull+8
	ora     #$01
	sta     _Skull+8
;
; backup_collision_info();
;
	jsr     _backup_collision_info
;
; while (
;
	jmp     L0031
;
; --temp_x;
;
L002F:	dec     _temp_x
;
; ++temp_y;
;
	inc     _temp_y
;
; set_collision_data(temp_x + Skull.width, temp_y)) {
;
L0031:	lda     _temp_x
	clc
	adc     _Skull+2
	jsr     pusha
	lda     _temp_y
	jsr     _set_collision_data
	tax
	bne     L002F
;
; } else {
;
	jmp     L007E
;
; if (Skull.ySpeed > 0) {
;
L008A:	lda     _Skull+7
	sec
	sbc     #$01
	bvs     L0035
	eor     #$80
L0035:	jpl     L008E
;
; if (set_collision_data(temp_x + Skull.width, temp_y + Skull.height)) {
;
	lda     _temp_x
	clc
	adc     _Skull+2
	jsr     pusha
	lda     _temp_y
	clc
	adc     _Skull+3
	jsr     _set_collision_data
	tax
	beq     L008B
;
; Skull.col_direction |= PAD_DOWN;
;
	lda     _Skull+8
	ora     #$04
	sta     _Skull+8
;
; backup_collision_info();
;
	jsr     _backup_collision_info
;
; while (set_collision_data(temp_x + Skull.width, temp_y + Skull.height)) {
;
	jmp     L0039
;
; --temp_y;
;
L0037:	dec     _temp_y
;
; while (set_collision_data(temp_x + Skull.width, temp_y + Skull.height)) {
;
L0039:	lda     _temp_x
	clc
	adc     _Skull+2
	jsr     pusha
	lda     _temp_y
	clc
	adc     _Skull+3
	jsr     _set_collision_data
	tax
	bne     L0037
;
; do_collision();
;
	jsr     _do_collision
;
; if (set_collision_data(temp_x, temp_y)) {
;
L008B:	lda     _temp_x
	jsr     pusha
	lda     _temp_y
	jsr     _set_collision_data
	tax
	beq     L008C
;
; Skull.col_direction |= PAD_LEFT;
;
	lda     _Skull+8
	ora     #$02
	sta     _Skull+8
;
; backup_collision_info();
;
	jsr     _backup_collision_info
;
; while (set_collision_data(temp_x, temp_y)) {
;
	jmp     L003D
;
; ++temp_x;
;
L003B:	inc     _temp_x
;
; while (set_collision_data(temp_x, temp_y)) {
;
L003D:	lda     _temp_x
	jsr     pusha
	lda     _temp_y
	jsr     _set_collision_data
	tax
	bne     L003B
;
; } else if (Skull.col_direction == 0 && set_collision_data(temp_x, temp_y + Skull.height)) {
;
	jmp     L007E
L008C:	lda     _Skull+8
	jne     L0092
	lda     _temp_x
	jsr     pusha
	lda     _temp_y
	clc
	adc     _Skull+3
	jsr     _set_collision_data
	tax
	jeq     L0092
;
; Skull.col_direction |= PAD_LEFT;
;
	lda     _Skull+8
	ora     #$02
	sta     _Skull+8
;
; backup_collision_info();
;
	jsr     _backup_collision_info
;
; while (
;
	jmp     L0045
;
; ++temp_x;
;
L0043:	inc     _temp_x
;
; ++temp_y;
;
	inc     _temp_y
;
; set_collision_data(temp_x, temp_y + Skull.height)) {
;
L0045:	lda     _temp_x
	jsr     pusha
	lda     _temp_y
	clc
	adc     _Skull+3
	jsr     _set_collision_data
	tax
	bne     L0043
;
; } else {
;
	jmp     L007E
;
; if (set_collision_data(temp_x + Skull.width, temp_y)) {
;
L008E:	lda     _temp_x
	clc
	adc     _Skull+2
	jsr     pusha
	lda     _temp_y
	jsr     _set_collision_data
	tax
	beq     L008F
;
; Skull.col_direction |= PAD_UP;
;
	lda     _Skull+8
	ora     #$08
	sta     _Skull+8
;
; backup_collision_info();
;
	jsr     _backup_collision_info
;
; while (set_collision_data(temp_x + Skull.width, temp_y)) {
;
	jmp     L004A
;
; ++temp_y;
;
L0048:	inc     _temp_y
;
; while (set_collision_data(temp_x + Skull.width, temp_y)) {
;
L004A:	lda     _temp_x
	clc
	adc     _Skull+2
	jsr     pusha
	lda     _temp_y
	jsr     _set_collision_data
	tax
	bne     L0048
;
; do_collision();
;
	jsr     _do_collision
;
; if (set_collision_data(temp_x, temp_y + Skull.height)) {
;
L008F:	lda     _temp_x
	jsr     pusha
	lda     _temp_y
	clc
	adc     _Skull+3
	jsr     _set_collision_data
	tax
	beq     L0090
;
; Skull.col_direction |= PAD_LEFT;
;
	lda     _Skull+8
	ora     #$02
	sta     _Skull+8
;
; backup_collision_info();
;
	jsr     _backup_collision_info
;
; while (set_collision_data(temp_x, temp_y + Skull.height)) {
;
	jmp     L004E
;
; ++temp_x;
;
L004C:	inc     _temp_x
;
; while (set_collision_data(temp_x, temp_y + Skull.height)) {
;
L004E:	lda     _temp_x
	jsr     pusha
	lda     _temp_y
	clc
	adc     _Skull+3
	jsr     _set_collision_data
	tax
	bne     L004C
;
; } else if (Skull.col_direction == 0 && set_collision_data(temp_x, temp_y)) {
;
	jmp     L007E
L0090:	lda     _Skull+8
	bne     L0092
	lda     _temp_x
	jsr     pusha
	lda     _temp_y
	jsr     _set_collision_data
	tax
	beq     L0092
;
; Skull.col_direction |= PAD_LEFT;
;
	lda     _Skull+8
	ora     #$02
	sta     _Skull+8
;
; backup_collision_info();
;
	jsr     _backup_collision_info
;
; while (set_collision_data(temp_x, temp_y)) {
;
	jmp     L0056
;
; ++temp_x;
;
L0054:	inc     _temp_x
;
; ++temp_y;
;
	inc     _temp_y
;
; while (set_collision_data(temp_x, temp_y)) {
;
L0056:	lda     _temp_x
	jsr     pusha
	lda     _temp_y
	jsr     _set_collision_data
	tax
	bne     L0054
;
; do_collision();
;
L007E:	jsr     _do_collision
;
; if ((Skull.col_direction & PAD_DOWN) || (Skull.col_direction & PAD_UP)) {
;
L0092:	lda     _Skull+8
	and     #$04
	bne     L0093
	lda     _Skull+8
	and     #$08
	beq     L0094
;
; Skull.ySpeed = -Skull.ySpeed;
;
L0093:	lda     _Skull+7
	eor     #$FF
	clc
	adc     #$01
	cmp     #$80
	sta     _Skull+7
;
; if ((Skull.col_direction & PAD_RIGHT) || (Skull.col_direction & PAD_LEFT)) {
;
L0094:	lda     _Skull+8
	and     #$01
	bne     L0095
	lda     _Skull+8
	and     #$02
	beq     L0096
;
; Skull.xSpeed = -Skull.xSpeed;
;
L0095:	lda     _Skull+6
	eor     #$FF
	clc
	adc     #$01
	cmp     #$80
	sta     _Skull+6
;
; Skull.x = temp_x;
;
L0096:	lda     _temp_x
	sta     _Skull
;
; Skull.y = temp_y;
;
	lda     _temp_y
;
; } else {
;
	jmp     L007F
;
; Skull.x = Paddle.x + (Paddle.width >> 1) - (Skull.width >> 1);
;
L0002:	tax
	lda     _Paddle+2
	lsr     a
	clc
	adc     _Paddle
	bcc     L007C
	inx
L007C:	jsr     pushax
	lda     _Skull+2
	lsr     a
	jsr     tossuba0
	sta     _Skull
;
; Skull.y = Paddle.y - Skull.height;
;
	lda     _Paddle+1
	sec
	sbc     _Skull+3
L007F:	sta     _Skull+1
;
; }
;
	rts

.endproc

; ---------------------------------------------------------------
; void __near__ draw_sprites (void)
; ---------------------------------------------------------------

.segment	"CODE"

.proc	_draw_sprites: near

.segment	"CODE"

;
; oam_clear();
;
	jsr     _oam_clear
;
; oam_meta_spr(Paddle.x, Paddle.y, PaddleSpr);
;
	jsr     decsp2
	lda     _Paddle
	ldy     #$01
	sta     (sp),y
	lda     _Paddle+1
	dey
	sta     (sp),y
	lda     #<(_PaddleSpr)
	ldx     #>(_PaddleSpr)
	jsr     _oam_meta_spr
;
; oam_meta_spr(Skull.x, Skull.y, SkullSpr);
;
	jsr     decsp2
	lda     _Skull
	ldy     #$01
	sta     (sp),y
	lda     _Skull+1
	dey
	sta     (sp),y
	lda     #<(_SkullSpr)
	ldx     #>(_SkullSpr)
	jmp     _oam_meta_spr

.endproc

; ---------------------------------------------------------------
; void __near__ main (void)
; ---------------------------------------------------------------

.segment	"CODE"

.proc	_main: near

.segment	"CODE"

;
; ppu_off();
;
	jsr     _ppu_off
;
; bank_spr(1);
;
	lda     #$01
	jsr     _bank_spr
;
; set_vram_buffer();
;
	jsr     _set_vram_buffer
;
; load_title_screen();
;
	jsr     _load_title_screen
;
; ppu_on_all();
;
	jsr     _ppu_on_all
;
; while (game_state == TITLE) {
;
	jmp     L000C
;
; ppu_wait_nmi();
;
L0005:	jsr     _ppu_wait_nmi
;
; pad1 = pad_poll(0);
;
	lda     #$00
	jsr     _pad_poll
	sta     _pad1
;
; pad1_new = get_pad_new(0);
;
	lda     #$00
	jsr     _get_pad_new
	sta     _pad1_new
;
; if (pad1_new & PAD_START) {
;
	and     #$10
	beq     L000C
;
; game_state = MAIN;
;
	lda     #$01
	sta     _game_state
;
; current_level = 0;
;
	lda     #$00
	sta     _current_level
;
; p1_health = 3;
;
	lda     #$03
	sta     _p1_health
;
; p1_max_health = 3;
;
	sta     _p1_max_health
;
; show_screen();
;
	jsr     _show_screen
;
; while (game_state == TITLE) {
;
L000C:	lda     _game_state
	beq     L0005
;
; while (game_state == MAIN) {
;
	jmp     L000D
;
; ppu_wait_nmi();
;
L0009:	jsr     _ppu_wait_nmi
;
; pad1 = pad_poll(0);
;
	lda     #$00
	jsr     _pad_poll
	sta     _pad1
;
; pad1_new = get_pad_new(0);
;
	lda     #$00
	jsr     _get_pad_new
	sta     _pad1_new
;
; check_paddle_input();
;
	jsr     _check_paddle_input
;
; update_skull();
;
	jsr     _update_skull
;
; draw_sprites();
;
	jsr     _draw_sprites
;
; while (game_state == MAIN) {
;
L000D:	lda     _game_state
	cmp     #$01
	beq     L0009
;
; while (1) {
;
	jmp     L000C

.endproc

