;
; File generated by cc65 v 2.19 - Git 4f87c7c
;
	.fopt		compiler,"cc65 v 2.19 - Git 4f87c7c"
	.setcpu		"6502"
	.smart		on
	.autoimport	on
	.case		on
	.debuginfo	off
	.importzp	sp, sreg, regsave, regbank
	.importzp	tmp1, tmp2, tmp3, tmp4, ptr1, ptr2, ptr3, ptr4
	.macpack	longbranch
	.forceimport	__STARTUP__
	.import		_set_vram_buffer
	.import		_one_vram_buffer
	.import		_multi_vram_buffer_horz
	.import		_get_pad_new
	.import		_gray_line
	.import		_pal_bg
	.import		_pal_spr
	.import		_ppu_wait_nmi
	.import		_ppu_off
	.import		_ppu_on_all
	.import		_oam_clear
	.import		_oam_spr
	.import		_oam_meta_spr
	.import		_pad_poll
	.import		_bank_spr
	.import		_vram_adr
	.import		_vram_fill
	.import		_vram_unrle
	.import		_memcpy
	.export		_forest_col_01
	.export		_forest_col_02
	.export		_forest_level_01
	.export		_forest_level_02
	.export		_title_screen
	.export		_HorizontalPaddleSpr
	.export		_VerticalPaddleSpr
	.export		_SkullSpr
	.export		_pal_forest_bg
	.export		_pal_spr_01
	.export		_level_list
	.export		_actors
	.export		_update_health
	.export		_update_xp
	.export		_add_xp
	.export		_show_HUD
	.export		_show_title_screen
	.export		_show_game_over
	.export		_load_paddles
	.export		_load_level
	.export		_load_title_screen
	.export		_remove_brick
	.export		_hit_brick
	.export		_get_x_speed
	.export		_get_y_speed
	.export		_add_x_speed
	.export		_subtract_x_speed
	.export		_add_y_speed
	.export		_subtract_y_speed
	.export		_get_collision_type
	.export		_set_collision_data
	.export		_do_skull_tile_collision
	.export		_is_skull_h_beside
	.export		_is_skull_v_beside
	.export		_is_skull_collision_paddle
	.export		_is_paddle_collision_skull
	.export		_move_horizontal_paddle
	.export		_move_vertical_paddle
	.export		_check_paddle_collision
	.export		_check_main_input
	.export		_update_skull
	.export		_draw_sprites
	.export		_main

.segment	"DATA"

_level_list:
	.addr	_forest_level_01
	.addr	_forest_col_01
	.addr	_pal_forest_bg
	.addr	_forest_level_02
	.addr	_forest_col_02
	.addr	_pal_forest_bg
_exp:
	.byte	$30,$30,$30,$30,$30,$30,$30,$30,$00
_skull_index:
	.byte	$00

.segment	"RODATA"

_forest_col_01:
	.byte	$11
	.byte	$11
	.byte	$11
	.byte	$11
	.byte	$11
	.byte	$11
	.byte	$11
	.byte	$11
	.byte	$11
	.byte	$11
	.byte	$11
	.byte	$11
	.byte	$11
	.byte	$11
	.byte	$11
	.byte	$11
	.byte	$11
	.byte	$11
	.byte	$11
	.byte	$11
	.byte	$11
	.byte	$11
	.byte	$11
	.byte	$11
	.byte	$11
	.byte	$11
	.byte	$11
	.byte	$11
	.byte	$11
	.byte	$11
	.byte	$11
	.byte	$11
	.byte	$11
	.byte	$11
	.byte	$11
	.byte	$11
	.byte	$11
	.byte	$11
	.byte	$11
	.byte	$11
	.byte	$11
	.byte	$11
	.byte	$11
	.byte	$11
	.byte	$11
	.byte	$11
	.byte	$11
	.byte	$11
	.byte	$11
	.byte	$11
	.byte	$00
	.byte	$00
	.byte	$00
	.byte	$00
	.byte	$11
	.byte	$11
	.byte	$11
	.byte	$11
	.byte	$00
	.byte	$00
	.byte	$00
	.byte	$00
	.byte	$11
	.byte	$11
	.byte	$11
	.byte	$11
	.byte	$06
	.byte	$66
	.byte	$66
	.byte	$60
	.byte	$11
	.byte	$11
	.byte	$11
	.byte	$11
	.byte	$06
	.byte	$66
	.byte	$66
	.byte	$60
	.byte	$11
	.byte	$11
	.byte	$11
	.byte	$11
	.byte	$06
	.byte	$66
	.byte	$66
	.byte	$60
	.byte	$00
	.byte	$00
	.byte	$00
	.byte	$00
	.byte	$06
	.byte	$66
	.byte	$66
	.byte	$60
	.byte	$11
	.byte	$11
	.byte	$11
	.byte	$11
	.byte	$00
	.byte	$00
	.byte	$00
	.byte	$00
	.byte	$00
	.byte	$00
	.byte	$00
	.byte	$00
	.byte	$00
	.byte	$00
	.byte	$00
	.byte	$00
	.byte	$11
	.byte	$11
	.byte	$11
	.byte	$11
	.byte	$11
	.byte	$00
	.byte	$00
	.byte	$00
	.byte	$00
	.byte	$00
	.byte	$00
	.byte	$00
	.byte	$00
	.byte	$00
	.byte	$00
	.byte	$11
	.byte	$11
	.byte	$11
	.byte	$11
	.byte	$11
	.byte	$11
	.byte	$10
	.byte	$00
	.byte	$00
	.byte	$00
	.byte	$00
	.byte	$00
	.byte	$00
	.byte	$00
	.byte	$00
	.byte	$01
	.byte	$11
	.byte	$11
	.byte	$11
	.byte	$11
	.byte	$11
	.byte	$11
	.byte	$11
	.byte	$34
	.byte	$34
	.byte	$34
	.byte	$34
	.byte	$34
	.byte	$34
	.byte	$34
	.byte	$34
	.byte	$11
	.byte	$11
	.byte	$11
	.byte	$11
	.byte	$11
	.byte	$11
	.byte	$11
	.byte	$11
	.byte	$34
	.byte	$34
	.byte	$34
	.byte	$34
	.byte	$34
	.byte	$34
	.byte	$34
	.byte	$34
	.byte	$11
	.byte	$11
	.byte	$11
	.byte	$11
	.byte	$11
	.byte	$11
	.byte	$11
	.byte	$11
	.byte	$34
	.byte	$34
	.byte	$34
	.byte	$34
	.byte	$34
	.byte	$34
	.byte	$34
	.byte	$34
	.byte	$11
	.byte	$11
	.byte	$11
	.byte	$11
	.byte	$11
	.byte	$11
	.byte	$11
	.byte	$10
	.byte	$00
	.byte	$00
	.byte	$00
	.byte	$00
	.byte	$00
	.byte	$00
	.byte	$00
	.byte	$00
	.byte	$01
	.byte	$11
	.byte	$11
	.byte	$11
	.byte	$11
	.byte	$11
	.byte	$11
	.byte	$00
	.byte	$00
	.byte	$00
	.byte	$00
	.byte	$00
	.byte	$00
	.byte	$00
	.byte	$00
	.byte	$00
	.byte	$00
	.byte	$11
	.byte	$11
	.byte	$11
	.byte	$11
	.byte	$11
	.byte	$11
	.byte	$00
	.byte	$66
	.byte	$66
	.byte	$66
	.byte	$66
	.byte	$66
	.byte	$66
	.byte	$66
	.byte	$66
	.byte	$00
	.byte	$11
	.byte	$11
	.byte	$11
	.byte	$11
	.byte	$11
	.byte	$00
	.byte	$00
	.byte	$66
	.byte	$66
	.byte	$66
	.byte	$66
	.byte	$66
	.byte	$66
	.byte	$66
	.byte	$66
	.byte	$00
	.byte	$00
	.byte	$11
	.byte	$11
	.byte	$11
	.byte	$11
	.byte	$00
	.byte	$00
	.byte	$55
	.byte	$55
	.byte	$55
	.byte	$55
	.byte	$55
	.byte	$55
	.byte	$55
	.byte	$55
	.byte	$00
	.byte	$00
	.byte	$11
	.byte	$11
	.byte	$11
	.byte	$11
	.byte	$00
	.byte	$00
	.byte	$00
	.byte	$00
	.byte	$00
	.byte	$00
	.byte	$00
	.byte	$00
	.byte	$00
	.byte	$00
	.byte	$00
	.byte	$00
	.byte	$11
	.byte	$11
	.byte	$11
	.byte	$11
	.byte	$00
	.byte	$00
	.byte	$00
	.byte	$00
	.byte	$00
	.byte	$00
	.byte	$00
	.byte	$00
	.byte	$00
	.byte	$00
	.byte	$00
	.byte	$00
	.byte	$11
	.byte	$11
	.byte	$11
	.byte	$11
	.byte	$00
	.byte	$00
	.byte	$00
	.byte	$00
	.byte	$00
	.byte	$00
	.byte	$00
	.byte	$00
	.byte	$00
	.byte	$00
	.byte	$00
	.byte	$00
	.byte	$11
	.byte	$11
	.byte	$11
	.byte	$11
	.byte	$00
	.byte	$00
	.byte	$00
	.byte	$00
	.byte	$00
	.byte	$00
	.byte	$00
	.byte	$00
	.byte	$00
	.byte	$00
	.byte	$00
	.byte	$00
	.byte	$11
	.byte	$11
	.byte	$11
	.byte	$11
	.byte	$00
	.byte	$00
	.byte	$00
	.byte	$00
	.byte	$00
	.byte	$00
	.byte	$00
	.byte	$00
	.byte	$00
	.byte	$00
	.byte	$00
	.byte	$00
	.byte	$11
	.byte	$11
	.byte	$11
	.byte	$11
	.byte	$22
	.byte	$22
	.byte	$22
	.byte	$22
	.byte	$22
	.byte	$22
	.byte	$22
	.byte	$22
	.byte	$22
	.byte	$22
	.byte	$22
	.byte	$22
	.byte	$11
	.byte	$11
_forest_col_02:
	.byte	$11
	.byte	$11
	.byte	$11
	.byte	$11
	.byte	$11
	.byte	$11
	.byte	$11
	.byte	$11
	.byte	$11
	.byte	$11
	.byte	$11
	.byte	$11
	.byte	$11
	.byte	$11
	.byte	$11
	.byte	$11
	.byte	$11
	.byte	$11
	.byte	$22
	.byte	$22
	.byte	$22
	.byte	$22
	.byte	$22
	.byte	$22
	.byte	$22
	.byte	$22
	.byte	$22
	.byte	$22
	.byte	$22
	.byte	$22
	.byte	$11
	.byte	$11
	.byte	$11
	.byte	$11
	.byte	$00
	.byte	$00
	.byte	$00
	.byte	$00
	.byte	$00
	.byte	$00
	.byte	$00
	.byte	$00
	.byte	$00
	.byte	$00
	.byte	$00
	.byte	$00
	.byte	$11
	.byte	$11
	.byte	$11
	.byte	$20
	.byte	$00
	.byte	$00
	.byte	$00
	.byte	$00
	.byte	$00
	.byte	$00
	.byte	$00
	.byte	$00
	.byte	$00
	.byte	$00
	.byte	$00
	.byte	$00
	.byte	$02
	.byte	$11
	.byte	$11
	.byte	$20
	.byte	$00
	.byte	$66
	.byte	$66
	.byte	$00
	.byte	$00
	.byte	$00
	.byte	$00
	.byte	$00
	.byte	$00
	.byte	$66
	.byte	$66
	.byte	$00
	.byte	$02
	.byte	$11
	.byte	$11
	.byte	$20
	.byte	$00
	.byte	$66
	.byte	$66
	.byte	$00
	.byte	$00
	.byte	$00
	.byte	$00
	.byte	$00
	.byte	$00
	.byte	$66
	.byte	$66
	.byte	$00
	.byte	$02
	.byte	$11
	.byte	$11
	.byte	$20
	.byte	$00
	.byte	$66
	.byte	$66
	.byte	$00
	.byte	$00
	.byte	$00
	.byte	$00
	.byte	$00
	.byte	$00
	.byte	$66
	.byte	$66
	.byte	$00
	.byte	$02
	.byte	$11
	.byte	$11
	.byte	$20
	.byte	$00
	.byte	$66
	.byte	$66
	.byte	$50
	.byte	$00
	.byte	$55
	.byte	$55
	.byte	$00
	.byte	$05
	.byte	$66
	.byte	$66
	.byte	$00
	.byte	$02
	.byte	$11
	.byte	$11
	.byte	$20
	.byte	$00
	.byte	$00
	.byte	$00
	.byte	$05
	.byte	$05
	.byte	$55
	.byte	$55
	.byte	$50
	.byte	$50
	.byte	$00
	.byte	$00
	.byte	$00
	.byte	$02
	.byte	$11
	.byte	$11
	.byte	$20
	.byte	$00
	.byte	$00
	.byte	$00
	.byte	$00
	.byte	$50
	.byte	$55
	.byte	$55
	.byte	$05
	.byte	$00
	.byte	$00
	.byte	$00
	.byte	$00
	.byte	$02
	.byte	$11
	.byte	$11
	.byte	$20
	.byte	$00
	.byte	$00
	.byte	$00
	.byte	$00
	.byte	$50
	.byte	$05
	.byte	$50
	.byte	$05
	.byte	$00
	.byte	$00
	.byte	$00
	.byte	$00
	.byte	$02
	.byte	$11
	.byte	$11
	.byte	$20
	.byte	$00
	.byte	$00
	.byte	$00
	.byte	$00
	.byte	$55
	.byte	$55
	.byte	$55
	.byte	$55
	.byte	$00
	.byte	$00
	.byte	$00
	.byte	$00
	.byte	$02
	.byte	$11
	.byte	$11
	.byte	$20
	.byte	$00
	.byte	$00
	.byte	$00
	.byte	$00
	.byte	$00
	.byte	$55
	.byte	$55
	.byte	$00
	.byte	$00
	.byte	$00
	.byte	$00
	.byte	$00
	.byte	$02
	.byte	$11
	.byte	$11
	.byte	$20
	.byte	$00
	.byte	$00
	.byte	$00
	.byte	$00
	.byte	$00
	.byte	$55
	.byte	$55
	.byte	$00
	.byte	$00
	.byte	$00
	.byte	$00
	.byte	$00
	.byte	$02
	.byte	$11
	.byte	$11
	.byte	$20
	.byte	$00
	.byte	$00
	.byte	$00
	.byte	$00
	.byte	$50
	.byte	$00
	.byte	$00
	.byte	$05
	.byte	$00
	.byte	$00
	.byte	$00
	.byte	$00
	.byte	$02
	.byte	$11
	.byte	$11
	.byte	$20
	.byte	$00
	.byte	$00
	.byte	$00
	.byte	$05
	.byte	$00
	.byte	$55
	.byte	$55
	.byte	$00
	.byte	$50
	.byte	$00
	.byte	$00
	.byte	$00
	.byte	$02
	.byte	$11
	.byte	$11
	.byte	$20
	.byte	$00
	.byte	$66
	.byte	$66
	.byte	$50
	.byte	$00
	.byte	$00
	.byte	$00
	.byte	$00
	.byte	$05
	.byte	$66
	.byte	$66
	.byte	$00
	.byte	$02
	.byte	$11
	.byte	$11
	.byte	$20
	.byte	$00
	.byte	$66
	.byte	$66
	.byte	$00
	.byte	$00
	.byte	$00
	.byte	$00
	.byte	$00
	.byte	$00
	.byte	$66
	.byte	$66
	.byte	$00
	.byte	$02
	.byte	$11
	.byte	$11
	.byte	$20
	.byte	$00
	.byte	$66
	.byte	$66
	.byte	$00
	.byte	$00
	.byte	$00
	.byte	$00
	.byte	$00
	.byte	$00
	.byte	$66
	.byte	$66
	.byte	$00
	.byte	$02
	.byte	$11
	.byte	$11
	.byte	$20
	.byte	$00
	.byte	$66
	.byte	$66
	.byte	$00
	.byte	$00
	.byte	$00
	.byte	$00
	.byte	$00
	.byte	$00
	.byte	$66
	.byte	$66
	.byte	$00
	.byte	$02
	.byte	$11
	.byte	$11
	.byte	$20
	.byte	$00
	.byte	$00
	.byte	$00
	.byte	$00
	.byte	$00
	.byte	$00
	.byte	$00
	.byte	$00
	.byte	$00
	.byte	$00
	.byte	$00
	.byte	$00
	.byte	$02
	.byte	$11
	.byte	$11
	.byte	$11
	.byte	$00
	.byte	$00
	.byte	$00
	.byte	$00
	.byte	$00
	.byte	$00
	.byte	$00
	.byte	$00
	.byte	$00
	.byte	$00
	.byte	$00
	.byte	$00
	.byte	$11
	.byte	$11
	.byte	$11
	.byte	$11
	.byte	$22
	.byte	$22
	.byte	$22
	.byte	$22
	.byte	$22
	.byte	$22
	.byte	$22
	.byte	$22
	.byte	$22
	.byte	$22
	.byte	$22
	.byte	$22
	.byte	$11
	.byte	$11
_forest_level_01:
	.byte	$01
	.byte	$00
	.byte	$01
	.byte	$A0
	.byte	$05
	.byte	$05
	.byte	$09
	.byte	$18
	.byte	$19
	.byte	$18
	.byte	$19
	.byte	$18
	.byte	$19
	.byte	$18
	.byte	$19
	.byte	$18
	.byte	$19
	.byte	$18
	.byte	$19
	.byte	$18
	.byte	$19
	.byte	$18
	.byte	$19
	.byte	$18
	.byte	$19
	.byte	$18
	.byte	$19
	.byte	$18
	.byte	$19
	.byte	$18
	.byte	$19
	.byte	$08
	.byte	$08
	.byte	$05
	.byte	$00
	.byte	$00
	.byte	$05
	.byte	$05
	.byte	$19
	.byte	$06
	.byte	$07
	.byte	$06
	.byte	$07
	.byte	$06
	.byte	$07
	.byte	$06
	.byte	$07
	.byte	$08
	.byte	$09
	.byte	$08
	.byte	$09
	.byte	$08
	.byte	$09
	.byte	$08
	.byte	$09
	.byte	$06
	.byte	$07
	.byte	$06
	.byte	$07
	.byte	$06
	.byte	$07
	.byte	$06
	.byte	$07
	.byte	$18
	.byte	$18
	.byte	$05
	.byte	$00
	.byte	$00
	.byte	$05
	.byte	$05
	.byte	$09
	.byte	$16
	.byte	$17
	.byte	$16
	.byte	$17
	.byte	$16
	.byte	$17
	.byte	$16
	.byte	$17
	.byte	$18
	.byte	$19
	.byte	$18
	.byte	$19
	.byte	$18
	.byte	$19
	.byte	$18
	.byte	$19
	.byte	$16
	.byte	$17
	.byte	$16
	.byte	$17
	.byte	$16
	.byte	$17
	.byte	$16
	.byte	$17
	.byte	$16
	.byte	$05
	.byte	$05
	.byte	$00
	.byte	$00
	.byte	$05
	.byte	$05
	.byte	$19
	.byte	$10
	.byte	$01
	.byte	$07
	.byte	$06
	.byte	$07
	.byte	$06
	.byte	$07
	.byte	$06
	.byte	$07
	.byte	$06
	.byte	$07
	.byte	$10
	.byte	$01
	.byte	$07
	.byte	$08
	.byte	$05
	.byte	$05
	.byte	$00
	.byte	$00
	.byte	$05
	.byte	$05
	.byte	$09
	.byte	$10
	.byte	$02
	.byte	$03
	.byte	$02
	.byte	$03
	.byte	$02
	.byte	$03
	.byte	$10
	.byte	$16
	.byte	$17
	.byte	$16
	.byte	$17
	.byte	$16
	.byte	$17
	.byte	$16
	.byte	$17
	.byte	$10
	.byte	$02
	.byte	$03
	.byte	$02
	.byte	$03
	.byte	$02
	.byte	$03
	.byte	$10
	.byte	$18
	.byte	$05
	.byte	$05
	.byte	$00
	.byte	$00
	.byte	$05
	.byte	$05
	.byte	$19
	.byte	$10
	.byte	$12
	.byte	$13
	.byte	$12
	.byte	$13
	.byte	$12
	.byte	$13
	.byte	$10
	.byte	$01
	.byte	$09
	.byte	$12
	.byte	$13
	.byte	$12
	.byte	$13
	.byte	$12
	.byte	$13
	.byte	$10
	.byte	$08
	.byte	$05
	.byte	$05
	.byte	$00
	.byte	$00
	.byte	$05
	.byte	$05
	.byte	$09
	.byte	$10
	.byte	$01
	.byte	$02
	.byte	$11
	.byte	$01
	.byte	$11
	.byte	$10
	.byte	$01
	.byte	$02
	.byte	$18
	.byte	$05
	.byte	$05
	.byte	$00
	.byte	$00
	.byte	$05
	.byte	$01
	.byte	$02
	.byte	$08
	.byte	$09
	.byte	$10
	.byte	$10
	.byte	$11
	.byte	$01
	.byte	$0F
	.byte	$10
	.byte	$10
	.byte	$08
	.byte	$09
	.byte	$05
	.byte	$01
	.byte	$02
	.byte	$00
	.byte	$00
	.byte	$05
	.byte	$05
	.byte	$08
	.byte	$18
	.byte	$19
	.byte	$09
	.byte	$10
	.byte	$01
	.byte	$11
	.byte	$08
	.byte	$18
	.byte	$19
	.byte	$09
	.byte	$05
	.byte	$05
	.byte	$00
	.byte	$00
	.byte	$05
	.byte	$08
	.byte	$18
	.byte	$08
	.byte	$09
	.byte	$19
	.byte	$09
	.byte	$14
	.byte	$15
	.byte	$14
	.byte	$15
	.byte	$14
	.byte	$15
	.byte	$14
	.byte	$15
	.byte	$14
	.byte	$15
	.byte	$14
	.byte	$15
	.byte	$14
	.byte	$15
	.byte	$14
	.byte	$15
	.byte	$08
	.byte	$18
	.byte	$08
	.byte	$09
	.byte	$19
	.byte	$09
	.byte	$05
	.byte	$00
	.byte	$00
	.byte	$05
	.byte	$18
	.byte	$08
	.byte	$18
	.byte	$19
	.byte	$09
	.byte	$19
	.byte	$14
	.byte	$15
	.byte	$14
	.byte	$15
	.byte	$14
	.byte	$15
	.byte	$14
	.byte	$15
	.byte	$14
	.byte	$15
	.byte	$14
	.byte	$15
	.byte	$14
	.byte	$15
	.byte	$14
	.byte	$15
	.byte	$18
	.byte	$08
	.byte	$18
	.byte	$19
	.byte	$09
	.byte	$19
	.byte	$05
	.byte	$00
	.byte	$00
	.byte	$05
	.byte	$08
	.byte	$18
	.byte	$08
	.byte	$09
	.byte	$19
	.byte	$09
	.byte	$14
	.byte	$15
	.byte	$14
	.byte	$15
	.byte	$14
	.byte	$15
	.byte	$14
	.byte	$15
	.byte	$14
	.byte	$15
	.byte	$14
	.byte	$15
	.byte	$14
	.byte	$15
	.byte	$14
	.byte	$15
	.byte	$08
	.byte	$18
	.byte	$08
	.byte	$09
	.byte	$19
	.byte	$09
	.byte	$05
	.byte	$00
	.byte	$00
	.byte	$05
	.byte	$05
	.byte	$08
	.byte	$18
	.byte	$19
	.byte	$09
	.byte	$10
	.byte	$01
	.byte	$11
	.byte	$08
	.byte	$18
	.byte	$19
	.byte	$09
	.byte	$05
	.byte	$05
	.byte	$00
	.byte	$00
	.byte	$05
	.byte	$01
	.byte	$02
	.byte	$06
	.byte	$07
	.byte	$10
	.byte	$10
	.byte	$11
	.byte	$01
	.byte	$0F
	.byte	$10
	.byte	$10
	.byte	$06
	.byte	$07
	.byte	$05
	.byte	$01
	.byte	$02
	.byte	$00
	.byte	$00
	.byte	$05
	.byte	$01
	.byte	$02
	.byte	$16
	.byte	$17
	.byte	$10
	.byte	$11
	.byte	$02
	.byte	$03
	.byte	$02
	.byte	$03
	.byte	$02
	.byte	$03
	.byte	$02
	.byte	$03
	.byte	$02
	.byte	$03
	.byte	$02
	.byte	$03
	.byte	$02
	.byte	$03
	.byte	$02
	.byte	$03
	.byte	$11
	.byte	$10
	.byte	$16
	.byte	$17
	.byte	$05
	.byte	$01
	.byte	$02
	.byte	$00
	.byte	$00
	.byte	$05
	.byte	$05
	.byte	$09
	.byte	$10
	.byte	$01
	.byte	$02
	.byte	$11
	.byte	$12
	.byte	$13
	.byte	$12
	.byte	$13
	.byte	$12
	.byte	$13
	.byte	$12
	.byte	$13
	.byte	$12
	.byte	$13
	.byte	$12
	.byte	$13
	.byte	$12
	.byte	$13
	.byte	$12
	.byte	$13
	.byte	$11
	.byte	$10
	.byte	$01
	.byte	$02
	.byte	$08
	.byte	$05
	.byte	$05
	.byte	$00
	.byte	$00
	.byte	$05
	.byte	$05
	.byte	$19
	.byte	$10
	.byte	$11
	.byte	$01
	.byte	$02
	.byte	$04
	.byte	$01
	.byte	$0F
	.byte	$11
	.byte	$01
	.byte	$02
	.byte	$10
	.byte	$18
	.byte	$05
	.byte	$05
	.byte	$00
	.byte	$00
	.byte	$05
	.byte	$05
	.byte	$09
	.byte	$10
	.byte	$11
	.byte	$01
	.byte	$15
	.byte	$10
	.byte	$08
	.byte	$05
	.byte	$05
	.byte	$00
	.byte	$00
	.byte	$05
	.byte	$05
	.byte	$19
	.byte	$10
	.byte	$11
	.byte	$01
	.byte	$15
	.byte	$10
	.byte	$18
	.byte	$05
	.byte	$05
	.byte	$00
	.byte	$00
	.byte	$05
	.byte	$05
	.byte	$09
	.byte	$10
	.byte	$11
	.byte	$01
	.byte	$15
	.byte	$10
	.byte	$08
	.byte	$05
	.byte	$05
	.byte	$00
	.byte	$00
	.byte	$05
	.byte	$05
	.byte	$19
	.byte	$10
	.byte	$11
	.byte	$01
	.byte	$15
	.byte	$10
	.byte	$18
	.byte	$05
	.byte	$05
	.byte	$00
	.byte	$00
	.byte	$05
	.byte	$05
	.byte	$09
	.byte	$10
	.byte	$01
	.byte	$17
	.byte	$08
	.byte	$05
	.byte	$05
	.byte	$00
	.byte	$00
	.byte	$05
	.byte	$05
	.byte	$19
	.byte	$1A
	.byte	$1B
	.byte	$1A
	.byte	$1B
	.byte	$1A
	.byte	$1B
	.byte	$1A
	.byte	$1B
	.byte	$1A
	.byte	$1B
	.byte	$1A
	.byte	$1B
	.byte	$1A
	.byte	$1B
	.byte	$1A
	.byte	$1B
	.byte	$1A
	.byte	$1B
	.byte	$1A
	.byte	$1B
	.byte	$1A
	.byte	$1B
	.byte	$1A
	.byte	$1B
	.byte	$18
	.byte	$05
	.byte	$05
	.byte	$00
	.byte	$00
	.byte	$05
	.byte	$01
	.byte	$1D
	.byte	$00
	.byte	$01
	.byte	$20
	.byte	$55
	.byte	$01
	.byte	$06
	.byte	$51
	.byte	$55
	.byte	$A5
	.byte	$A5
	.byte	$55
	.byte	$55
	.byte	$A5
	.byte	$A5
	.byte	$55
	.byte	$01
	.byte	$03
	.byte	$5A
	.byte	$5A
	.byte	$55
	.byte	$01
	.byte	$04
	.byte	$F5
	.byte	$01
	.byte	$03
	.byte	$55
	.byte	$01
	.byte	$02
	.byte	$65
	.byte	$5F
	.byte	$01
	.byte	$03
	.byte	$95
	.byte	$55
	.byte	$01
	.byte	$09
	.byte	$F5
	.byte	$01
	.byte	$05
	.byte	$55
	.byte	$05
	.byte	$01
	.byte	$06
	.byte	$05
	.byte	$01
	.byte	$00
_forest_level_02:
	.byte	$06
	.byte	$00
	.byte	$06
	.byte	$41
	.byte	$5B
	.byte	$06
	.byte	$02
	.byte	$5C
	.byte	$06
	.byte	$04
	.byte	$00
	.byte	$00
	.byte	$30
	.byte	$06
	.byte	$07
	.byte	$00
	.byte	$00
	.byte	$5D
	.byte	$5E
	.byte	$5F
	.byte	$00
	.byte	$00
	.byte	$20
	.byte	$30
	.byte	$30
	.byte	$00
	.byte	$06
	.byte	$18
	.byte	$7E
	.byte	$7F
	.byte	$00
	.byte	$06
	.byte	$27
	.byte	$05
	.byte	$06
	.byte	$1D
	.byte	$00
	.byte	$00
	.byte	$05
	.byte	$08
	.byte	$09
	.byte	$0A
	.byte	$0B
	.byte	$0A
	.byte	$0B
	.byte	$0A
	.byte	$0B
	.byte	$0A
	.byte	$0B
	.byte	$0A
	.byte	$0B
	.byte	$0A
	.byte	$0B
	.byte	$0A
	.byte	$0B
	.byte	$0A
	.byte	$0B
	.byte	$0A
	.byte	$0B
	.byte	$0A
	.byte	$0B
	.byte	$0A
	.byte	$0B
	.byte	$0A
	.byte	$0B
	.byte	$08
	.byte	$09
	.byte	$05
	.byte	$00
	.byte	$00
	.byte	$05
	.byte	$18
	.byte	$19
	.byte	$10
	.byte	$06
	.byte	$17
	.byte	$18
	.byte	$19
	.byte	$05
	.byte	$00
	.byte	$00
	.byte	$05
	.byte	$0C
	.byte	$10
	.byte	$06
	.byte	$02
	.byte	$11
	.byte	$06
	.byte	$13
	.byte	$10
	.byte	$06
	.byte	$02
	.byte	$0D
	.byte	$05
	.byte	$00
	.byte	$00
	.byte	$05
	.byte	$1C
	.byte	$10
	.byte	$06
	.byte	$02
	.byte	$02
	.byte	$03
	.byte	$02
	.byte	$03
	.byte	$11
	.byte	$06
	.byte	$0B
	.byte	$02
	.byte	$03
	.byte	$02
	.byte	$03
	.byte	$10
	.byte	$06
	.byte	$02
	.byte	$1D
	.byte	$05
	.byte	$00
	.byte	$00
	.byte	$05
	.byte	$0C
	.byte	$10
	.byte	$11
	.byte	$11
	.byte	$12
	.byte	$13
	.byte	$12
	.byte	$13
	.byte	$10
	.byte	$06
	.byte	$0B
	.byte	$12
	.byte	$13
	.byte	$12
	.byte	$13
	.byte	$11
	.byte	$11
	.byte	$10
	.byte	$0D
	.byte	$05
	.byte	$00
	.byte	$00
	.byte	$05
	.byte	$1C
	.byte	$10
	.byte	$11
	.byte	$11
	.byte	$02
	.byte	$03
	.byte	$02
	.byte	$03
	.byte	$10
	.byte	$06
	.byte	$0B
	.byte	$02
	.byte	$03
	.byte	$02
	.byte	$03
	.byte	$11
	.byte	$11
	.byte	$10
	.byte	$1D
	.byte	$05
	.byte	$00
	.byte	$00
	.byte	$05
	.byte	$0C
	.byte	$10
	.byte	$11
	.byte	$11
	.byte	$12
	.byte	$13
	.byte	$12
	.byte	$13
	.byte	$04
	.byte	$10
	.byte	$06
	.byte	$02
	.byte	$04
	.byte	$06
	.byte	$03
	.byte	$10
	.byte	$06
	.byte	$02
	.byte	$04
	.byte	$12
	.byte	$13
	.byte	$12
	.byte	$13
	.byte	$11
	.byte	$11
	.byte	$10
	.byte	$0D
	.byte	$05
	.byte	$00
	.byte	$00
	.byte	$05
	.byte	$1C
	.byte	$10
	.byte	$11
	.byte	$06
	.byte	$04
	.byte	$10
	.byte	$10
	.byte	$04
	.byte	$10
	.byte	$04
	.byte	$06
	.byte	$05
	.byte	$10
	.byte	$04
	.byte	$10
	.byte	$10
	.byte	$11
	.byte	$06
	.byte	$04
	.byte	$10
	.byte	$1D
	.byte	$05
	.byte	$00
	.byte	$00
	.byte	$05
	.byte	$0C
	.byte	$10
	.byte	$11
	.byte	$06
	.byte	$04
	.byte	$10
	.byte	$06
	.byte	$02
	.byte	$04
	.byte	$10
	.byte	$04
	.byte	$06
	.byte	$03
	.byte	$10
	.byte	$04
	.byte	$10
	.byte	$06
	.byte	$02
	.byte	$11
	.byte	$06
	.byte	$04
	.byte	$10
	.byte	$0D
	.byte	$05
	.byte	$00
	.byte	$00
	.byte	$05
	.byte	$1C
	.byte	$10
	.byte	$11
	.byte	$06
	.byte	$04
	.byte	$10
	.byte	$06
	.byte	$02
	.byte	$04
	.byte	$01
	.byte	$10
	.byte	$04
	.byte	$04
	.byte	$10
	.byte	$01
	.byte	$04
	.byte	$10
	.byte	$06
	.byte	$02
	.byte	$11
	.byte	$06
	.byte	$04
	.byte	$10
	.byte	$1D
	.byte	$05
	.byte	$00
	.byte	$00
	.byte	$05
	.byte	$0C
	.byte	$10
	.byte	$11
	.byte	$06
	.byte	$04
	.byte	$10
	.byte	$06
	.byte	$02
	.byte	$04
	.byte	$06
	.byte	$07
	.byte	$10
	.byte	$06
	.byte	$02
	.byte	$11
	.byte	$06
	.byte	$04
	.byte	$10
	.byte	$0D
	.byte	$05
	.byte	$00
	.byte	$00
	.byte	$05
	.byte	$1C
	.byte	$10
	.byte	$11
	.byte	$06
	.byte	$04
	.byte	$10
	.byte	$06
	.byte	$04
	.byte	$04
	.byte	$06
	.byte	$03
	.byte	$10
	.byte	$06
	.byte	$04
	.byte	$11
	.byte	$06
	.byte	$04
	.byte	$10
	.byte	$1D
	.byte	$05
	.byte	$00
	.byte	$00
	.byte	$05
	.byte	$0C
	.byte	$10
	.byte	$11
	.byte	$06
	.byte	$04
	.byte	$10
	.byte	$06
	.byte	$04
	.byte	$04
	.byte	$06
	.byte	$03
	.byte	$10
	.byte	$06
	.byte	$04
	.byte	$11
	.byte	$06
	.byte	$04
	.byte	$10
	.byte	$0D
	.byte	$05
	.byte	$00
	.byte	$00
	.byte	$05
	.byte	$1C
	.byte	$10
	.byte	$11
	.byte	$06
	.byte	$04
	.byte	$10
	.byte	$06
	.byte	$02
	.byte	$04
	.byte	$10
	.byte	$06
	.byte	$05
	.byte	$04
	.byte	$10
	.byte	$06
	.byte	$02
	.byte	$11
	.byte	$06
	.byte	$04
	.byte	$10
	.byte	$1D
	.byte	$05
	.byte	$00
	.byte	$00
	.byte	$05
	.byte	$0C
	.byte	$10
	.byte	$11
	.byte	$06
	.byte	$04
	.byte	$10
	.byte	$10
	.byte	$04
	.byte	$10
	.byte	$10
	.byte	$04
	.byte	$06
	.byte	$03
	.byte	$10
	.byte	$10
	.byte	$04
	.byte	$10
	.byte	$10
	.byte	$11
	.byte	$06
	.byte	$04
	.byte	$10
	.byte	$0D
	.byte	$05
	.byte	$00
	.byte	$00
	.byte	$05
	.byte	$1C
	.byte	$10
	.byte	$11
	.byte	$11
	.byte	$02
	.byte	$03
	.byte	$02
	.byte	$03
	.byte	$04
	.byte	$10
	.byte	$06
	.byte	$09
	.byte	$04
	.byte	$02
	.byte	$03
	.byte	$02
	.byte	$03
	.byte	$11
	.byte	$11
	.byte	$10
	.byte	$1D
	.byte	$05
	.byte	$00
	.byte	$00
	.byte	$05
	.byte	$0C
	.byte	$10
	.byte	$11
	.byte	$11
	.byte	$12
	.byte	$13
	.byte	$12
	.byte	$13
	.byte	$10
	.byte	$06
	.byte	$0B
	.byte	$12
	.byte	$13
	.byte	$12
	.byte	$13
	.byte	$11
	.byte	$11
	.byte	$10
	.byte	$0D
	.byte	$05
	.byte	$00
	.byte	$00
	.byte	$05
	.byte	$1C
	.byte	$10
	.byte	$11
	.byte	$11
	.byte	$02
	.byte	$03
	.byte	$02
	.byte	$03
	.byte	$10
	.byte	$06
	.byte	$0B
	.byte	$02
	.byte	$03
	.byte	$02
	.byte	$03
	.byte	$11
	.byte	$11
	.byte	$10
	.byte	$1D
	.byte	$05
	.byte	$00
	.byte	$00
	.byte	$05
	.byte	$0C
	.byte	$10
	.byte	$06
	.byte	$02
	.byte	$12
	.byte	$13
	.byte	$12
	.byte	$13
	.byte	$11
	.byte	$06
	.byte	$0B
	.byte	$12
	.byte	$13
	.byte	$12
	.byte	$13
	.byte	$10
	.byte	$06
	.byte	$02
	.byte	$0D
	.byte	$05
	.byte	$00
	.byte	$00
	.byte	$05
	.byte	$1C
	.byte	$10
	.byte	$06
	.byte	$02
	.byte	$11
	.byte	$06
	.byte	$13
	.byte	$10
	.byte	$06
	.byte	$02
	.byte	$1D
	.byte	$05
	.byte	$00
	.byte	$00
	.byte	$05
	.byte	$08
	.byte	$09
	.byte	$10
	.byte	$06
	.byte	$17
	.byte	$08
	.byte	$09
	.byte	$05
	.byte	$00
	.byte	$00
	.byte	$05
	.byte	$18
	.byte	$19
	.byte	$1A
	.byte	$1B
	.byte	$1A
	.byte	$1B
	.byte	$1A
	.byte	$1B
	.byte	$1A
	.byte	$1B
	.byte	$1A
	.byte	$1B
	.byte	$1A
	.byte	$1B
	.byte	$1A
	.byte	$1B
	.byte	$1A
	.byte	$1B
	.byte	$1A
	.byte	$1B
	.byte	$1A
	.byte	$1B
	.byte	$1A
	.byte	$1B
	.byte	$1A
	.byte	$1B
	.byte	$18
	.byte	$19
	.byte	$05
	.byte	$00
	.byte	$00
	.byte	$05
	.byte	$06
	.byte	$1D
	.byte	$00
	.byte	$06
	.byte	$28
	.byte	$55
	.byte	$F5
	.byte	$06
	.byte	$05
	.byte	$55
	.byte	$DD
	.byte	$55
	.byte	$15
	.byte	$05
	.byte	$05
	.byte	$45
	.byte	$55
	.byte	$77
	.byte	$DD
	.byte	$55
	.byte	$11
	.byte	$00
	.byte	$00
	.byte	$44
	.byte	$55
	.byte	$77
	.byte	$DD
	.byte	$55
	.byte	$11
	.byte	$00
	.byte	$00
	.byte	$44
	.byte	$55
	.byte	$77
	.byte	$DD
	.byte	$55
	.byte	$11
	.byte	$00
	.byte	$00
	.byte	$44
	.byte	$55
	.byte	$77
	.byte	$5D
	.byte	$F5
	.byte	$06
	.byte	$05
	.byte	$57
	.byte	$05
	.byte	$06
	.byte	$06
	.byte	$05
	.byte	$06
	.byte	$00
_title_screen:
	.byte	$01
	.byte	$00
	.byte	$01
	.byte	$FE
	.byte	$00
	.byte	$01
	.byte	$29
	.byte	$53
	.byte	$6B
	.byte	$75
	.byte	$6C
	.byte	$6C
	.byte	$00
	.byte	$01
	.byte	$03
	.byte	$51
	.byte	$75
	.byte	$65
	.byte	$73
	.byte	$74
	.byte	$00
	.byte	$01
	.byte	$B3
	.byte	$50
	.byte	$72
	.byte	$65
	.byte	$73
	.byte	$73
	.byte	$00
	.byte	$53
	.byte	$74
	.byte	$61
	.byte	$72
	.byte	$74
	.byte	$00
	.byte	$01
	.byte	$FE
	.byte	$00
	.byte	$01
	.byte	$32
	.byte	$54
	.byte	$68
	.byte	$65
	.byte	$00
	.byte	$6F
	.byte	$6C
	.byte	$64
	.byte	$00
	.byte	$67
	.byte	$61
	.byte	$6D
	.byte	$65
	.byte	$00
	.byte	$6D
	.byte	$61
	.byte	$6B
	.byte	$65
	.byte	$72
	.byte	$00
	.byte	$01
	.byte	$33
	.byte	$40
	.byte	$32
	.byte	$30
	.byte	$32
	.byte	$32
	.byte	$00
	.byte	$01
	.byte	$8B
	.byte	$00
	.byte	$01
	.byte	$00
_HorizontalPaddleSpr:
	.byte	$00
	.byte	$00
	.byte	$05
	.byte	$00
	.byte	$08
	.byte	$00
	.byte	$05
	.byte	$00
	.byte	$10
	.byte	$00
	.byte	$05
	.byte	$00
	.byte	$18
	.byte	$00
	.byte	$05
	.byte	$00
	.byte	$80
_VerticalPaddleSpr:
	.byte	$00
	.byte	$00
	.byte	$06
	.byte	$00
	.byte	$00
	.byte	$08
	.byte	$06
	.byte	$00
	.byte	$00
	.byte	$10
	.byte	$06
	.byte	$00
	.byte	$00
	.byte	$18
	.byte	$06
	.byte	$00
	.byte	$80
_SkullSpr:
	.byte	$00
	.byte	$00
	.byte	$00
	.byte	$00
	.byte	$80
_pal_forest_bg:
	.byte	$0F
	.byte	$15
	.byte	$20
	.byte	$09
	.byte	$0F
	.byte	$29
	.byte	$1A
	.byte	$09
	.byte	$0F
	.byte	$08
	.byte	$17
	.byte	$27
	.byte	$0F
	.byte	$37
	.byte	$17
	.byte	$09
_pal_spr_01:
	.byte	$0F
	.byte	$20
	.byte	$15
	.byte	$12
	.byte	$0F
	.byte	$11
	.byte	$22
	.byte	$32
	.byte	$0F
	.byte	$13
	.byte	$23
	.byte	$33
	.byte	$0F
	.byte	$14
	.byte	$24
	.byte	$34

.segment	"BSS"

_debug1:
	.res	1,$00
_debug2:
	.res	1,$00
_pad1:
	.res	1,$00
_pad1_new:
	.res	1,$00
_c_map:
	.res	368,$00
_collision_index:
	.res	2,$00
_backup_col_index:
	.res	2,$00
_backup_nt_index:
	.res	2,$00
_pad_index:
	.res	1,$00
_temp_y_col:
	.res	1,$00
_temp_x_col:
	.res	1,$00
_i:
	.res	1,$00
_z:
	.res	1,$00
_temp:
	.res	1,$00
_temp2:
	.res	1,$00
_temp_x:
	.res	1,$00
_temp_y:
	.res	1,$00
_backup_col_type:
	.res	1,$00
_skull_launched:
	.res	1,$00
_p1_health:
	.res	1,$00
_p1_max_health:
	.res	1,$00
_game_state:
	.res	1,$00
_current_level:
	.res	1,$00
_paddle_count:
	.res	1,$00
_actors:
	.res	90,$00

; ---------------------------------------------------------------
; void __near__ update_health (void)
; ---------------------------------------------------------------

.segment	"CODE"

.proc	_update_health: near

.segment	"CODE"

;
; if (p1_health > 0) {
;
	lda     _p1_health
	beq     L000E
;
; for (i = 0; i < p1_max_health; ++i) {
;
	lda     #$00
	sta     _i
L000B:	lda     _i
	cmp     _p1_max_health
	bcs     L000A
;
; one_vram_buffer((i < p1_health) ? TILE_HEART_FULL : TILE_HEART_EMPTY, NTADR_A(i + 2, 2));
;
	cmp     _p1_health
	bcs     L000C
	lda     #$5B
	jmp     L000D
L000C:	lda     #$5C
L000D:	jsr     pusha
	ldx     #$00
	lda     _i
	clc
	adc     #$02
	bcc     L0009
	inx
L0009:	ora     #$40
	pha
	txa
	ora     #$20
	tax
	pla
	jsr     _one_vram_buffer
;
; for (i = 0; i < p1_max_health; ++i) {
;
	inc     _i
	jmp     L000B
;
; one_vram_buffer(TILE_HEART_EMPTY, NTADR_A(2, 2));
;
L000E:	lda     #$5C
	jsr     pusha
	ldx     #$20
	lda     #$42
	jmp     _one_vram_buffer
;
; }
;
L000A:	rts

.endproc

; ---------------------------------------------------------------
; void __near__ update_xp (void)
; ---------------------------------------------------------------

.segment	"CODE"

.proc	_update_xp: near

.segment	"CODE"

;
; multi_vram_buffer_horz(exp, sizeof(exp), NTADR_A(12, 2));
;
	jsr     decsp3
	lda     #<(_exp)
	ldy     #$01
	sta     (sp),y
	iny
	lda     #>(_exp)
	sta     (sp),y
	lda     #$09
	ldy     #$00
	sta     (sp),y
	ldx     #$20
	lda     #$4C
	jmp     _multi_vram_buffer_horz

.endproc

; ---------------------------------------------------------------
; void __near__ add_xp (unsigned char value, unsigned char pos)
; ---------------------------------------------------------------

.segment	"CODE"

.proc	_add_xp: near

.segment	"CODE"

;
; void add_xp(unsigned char value, unsigned char pos) {
;
	jsr     pusha
;
; unsigned char result = exp[pos] + value - 0x30;
;
	ldy     #$00
	lda     (sp),y
	tay
	lda     _exp,y
	sta     ptr1
	ldy     #$01
	lda     (sp),y
	clc
	adc     ptr1
	sec
	sbc     #$30
	jsr     pusha
;
; if (result > 9) {
;
	ldy     #$00
	lda     (sp),y
	cmp     #$0A
	bcc     L0004
;
; if (pos == TEN_MILLIONS) {
;
	iny
	lda     (sp),y
	bne     L000C
;
; result = 9;
;
	lda     #$09
	dey
;
; } else {
;
	jmp     L000B
;
; add_xp(1, pos - 1);
;
L000C:	tya
	jsr     pusha
	ldy     #$02
	lda     (sp),y
	sec
	sbc     #$01
	jsr     _add_xp
;
; result -= 10;
;
	ldy     #$00
	lda     (sp),y
	sec
	sbc     #$0A
L000B:	sta     (sp),y
;
; exp[pos] = 0x30 + result;
;
L0004:	lda     #<(_exp)
	ldx     #>(_exp)
	iny
	clc
	adc     (sp),y
	bcc     L0008
	inx
L0008:	sta     ptr1
	stx     ptr1+1
	dey
	lda     (sp),y
	clc
	adc     #$30
	sta     (ptr1),y
;
; update_xp();
;
	jsr     _update_xp
;
; }
;
	jmp     incsp3

.endproc

; ---------------------------------------------------------------
; void __near__ show_HUD (void)
; ---------------------------------------------------------------

.segment	"CODE"

.proc	_show_HUD: near

.segment	"CODE"

;
; vram_adr(0x23C0);
;
	ldx     #$23
	lda     #$C0
	jsr     _vram_adr
;
; vram_fill(0x00, 8);
;
	lda     #$00
	jsr     pusha
	tax
	lda     #$08
	jsr     _vram_fill
;
; update_health();
;
	jsr     _update_health
;
; update_xp();
;
	jsr     _update_xp
;
; one_vram_buffer(0x5d, NTADR_A(22, 2));
;
	lda     #$5D
	jsr     pusha
	ldx     #$20
	lda     #$56
	jsr     _one_vram_buffer
;
; one_vram_buffer(0x5e, NTADR_A(23, 2));
;
	lda     #$5E
	jsr     pusha
	ldx     #$20
	lda     #$57
	jsr     _one_vram_buffer
;
; one_vram_buffer(0x5f, NTADR_A(24, 2));
;
	lda     #$5F
	jsr     pusha
	ldx     #$20
	lda     #$58
	jsr     _one_vram_buffer
;
; one_vram_buffer(0x7e, NTADR_A(23, 3));
;
	lda     #$7E
	jsr     pusha
	ldx     #$20
	lda     #$77
	jsr     _one_vram_buffer
;
; one_vram_buffer(0x7f, NTADR_A(24, 3));
;
	lda     #$7F
	jsr     pusha
	ldx     #$20
	lda     #$78
	jmp     _one_vram_buffer

.endproc

; ---------------------------------------------------------------
; void __near__ show_title_screen (void)
; ---------------------------------------------------------------

.segment	"CODE"

.proc	_show_title_screen: near

.segment	"CODE"

;
; }
;
	rts

.endproc

; ---------------------------------------------------------------
; void __near__ show_game_over (void)
; ---------------------------------------------------------------

.segment	"CODE"

.proc	_show_game_over: near

.segment	"CODE"

;
; }
;
	rts

.endproc

; ---------------------------------------------------------------
; void __near__ load_paddles (void)
; ---------------------------------------------------------------

.segment	"CODE"

.proc	_load_paddles: near

.segment	"CODE"

;
; switch (current_level) {
;
	lda     _current_level
;
; }
;
	jeq     L003F
	cmp     #$01
	jeq     L0040
	cmp     #$02
	jeq     L0041
	cmp     #$03
	jeq     L0041
	cmp     #$04
	jeq     L0041
	cmp     #$05
	jeq     L0041
	cmp     #$06
	jeq     L0041
	cmp     #$07
	jeq     L0041
	cmp     #$08
	jeq     L0041
	cmp     #$09
	jeq     L0041
	cmp     #$0A
	jeq     L0041
	cmp     #$0B
	jeq     L0041
	cmp     #$0C
	jeq     L0041
	cmp     #$0D
	jeq     L0041
	cmp     #$0E
	jeq     L0041
	cmp     #$0F
	jeq     L0041
	cmp     #$10
	jeq     L0041
	cmp     #$11
	jeq     L0041
	cmp     #$12
	jeq     L0041
	cmp     #$13
	jeq     L0041
	cmp     #$14
	jeq     L0041
	cmp     #$15
	jeq     L0041
	cmp     #$16
	beq     L0041
	cmp     #$17
	beq     L0041
	cmp     #$18
	beq     L0041
	cmp     #$19
	beq     L0041
	cmp     #$1A
	beq     L0041
	cmp     #$1B
	beq     L0041
	cmp     #$1C
	beq     L0041
	cmp     #$1D
	beq     L0041
	cmp     #$1E
	beq     L0041
	cmp     #$1F
	beq     L0041
	cmp     #$20
	beq     L0041
	cmp     #$21
	beq     L0041
	jmp     L0041
;
; paddle_count = 2;
;
L003F:	lda     #$02
	sta     _paddle_count
;
; actors.x[0] = 0x78;
;
	lda     #$78
	sta     _actors
;
; actors.y[0] = 0xD0;
;
	lda     #$D0
	sta     _actors+5
;
; actors.x[1] = 0x78;
;
	lda     #$78
	sta     _actors+1
;
; actors.y[1] = 0x50;
;
	lda     #$50
	sta     _actors+6
;
; break;
;
	jmp     L0041
;
; paddle_count = 4;
;
L0040:	lda     #$04
	sta     _paddle_count
;
; actors.x[0] = 0x70;  // 14
;
	lda     #$70
	sta     _actors
;
; actors.y[0] = 0xD0;  // 26
;
	lda     #$D0
	sta     _actors+5
;
; actors.x[1] = 0x70;  // 14
;
	lda     #$70
	sta     _actors+1
;
; actors.y[1] = 0x38;  // 7
;
	lda     #$38
	sta     _actors+6
;
; actors.x[2] = 0x18;  // 3
;
	lda     #$18
	sta     _actors+2
;
; actors.y[2] = 0x70;  // 14
;
	lda     #$70
	sta     _actors+7
;
; actors.x[3] = 0xE0;  // 28
;
	lda     #$E0
	sta     _actors+3
;
; actors.y[3] = 0x70;  // 14
;
	lda     #$70
	sta     _actors+8
;
; for (i = 0; i < paddle_count; ++i) {
;
L0041:	lda     #$00
	sta     _i
L0042:	lda     _i
	cmp     _paddle_count
	bcc     L0043
;
; }
;
	rts
;
; if (i < 2) {
;
L0043:	cmp     #$02
	bcs     L002A
;
; actors.width[i] = 0x20;
;
	ldy     _i
	lda     #$20
	sta     _actors+10,y
;
; actors.height[i] = 0x04;
;
	ldy     _i
	lda     #$04
	sta     _actors+15,y
;
; actors.bbox_x[i] = 0x02;
;
	ldy     _i
	lda     #$02
	sta     _actors+20,y
;
; actors.bbox_y[i] = 0x00;
;
	ldy     _i
	lda     #$00
;
; } else {
;
	jmp     L003E
;
; actors.width[i] = 0x04;
;
L002A:	ldy     _i
	lda     #$04
	sta     _actors+10,y
;
; actors.height[i] = 0x20;
;
	ldy     _i
	lda     #$20
	sta     _actors+15,y
;
; actors.bbox_x[i] = 0x00;
;
	ldy     _i
	lda     #$00
	sta     _actors+20,y
;
; actors.bbox_y[i] = 0x02;
;
	ldy     _i
	lda     #$02
L003E:	sta     _actors+25,y
;
; actors.xSpeed[i] = 0;
;
	ldy     _i
	lda     #$00
	sta     _actors+30,y
;
; actors.ySpeed[i] = 0;
;
	ldy     _i
	sta     _actors+35,y
;
; actors.xDir[i] = 0;
;
	ldy     _i
	sta     _actors+40,y
;
; actors.yDir[i] = 0;
;
	ldy     _i
	sta     _actors+45,y
;
; actors.xSpeedFloat[i] = 0;
;
	ldy     _i
	sta     _actors+50,y
;
; actors.ySpeedFloat[i] = 0;
;
	ldy     _i
	sta     _actors+55,y
;
; actors.xVelocity[i] = 0;
;
	ldy     _i
	sta     _actors+70,y
;
; actors.yVelocity[i] = 0;
;
	ldy     _i
	sta     _actors+75,y
;
; actors.minSpeed[i] = 0;
;
	ldy     _i
	sta     _actors+80,y
;
; actors.maxSpeed[i] = 250;
;
	ldy     _i
	lda     #$FA
	sta     _actors+85,y
;
; for (i = 0; i < paddle_count; ++i) {
;
	inc     _i
	jmp     L0042

.endproc

; ---------------------------------------------------------------
; void __near__ load_level (void)
; ---------------------------------------------------------------

.segment	"CODE"

.proc	_load_level: near

.segment	"CODE"

;
; ppu_off();
;
	jsr     _ppu_off
;
; vram_adr(NAMETABLE_A);
;
	ldx     #$20
	lda     #$00
	jsr     _vram_adr
;
; vram_unrle(level_list[current_level * 3]);
;
	ldx     #$00
	lda     _current_level
	jsr     mulax3
	stx     tmp1
	asl     a
	rol     tmp1
	clc
	adc     #<(_level_list)
	sta     ptr1
	lda     tmp1
	adc     #>(_level_list)
	sta     ptr1+1
	ldy     #$01
	lda     (ptr1),y
	tax
	dey
	lda     (ptr1),y
	jsr     _vram_unrle
;
; memcpy(c_map, level_list[current_level * 3 + 1], 368);
;
	lda     #<(_c_map)
	ldx     #>(_c_map)
	jsr     pushax
	ldx     #$00
	lda     _current_level
	jsr     mulax3
	clc
	adc     #$01
	bcc     L0002
	inx
L0002:	stx     tmp1
	asl     a
	rol     tmp1
	clc
	adc     #<(_level_list)
	sta     ptr1
	lda     tmp1
	adc     #>(_level_list)
	sta     ptr1+1
	ldy     #$01
	lda     (ptr1),y
	tax
	dey
	lda     (ptr1),y
	jsr     pushax
	ldx     #$01
	lda     #$70
	jsr     _memcpy
;
; load_paddles();
;
	jsr     _load_paddles
;
; actors.x[SKULL] = 0xFF;
;
	lda     #$FF
	sta     _actors+4
;
; actors.y[SKULL] = 0xFF;
;
	sta     _actors+9
;
; actors.width[SKULL] = 6;
;
	lda     #$06
	sta     _actors+14
;
; actors.height[SKULL] = 6;
;
	sta     _actors+19
;
; actors.bbox_x[SKULL] = 1;
;
	lda     #$01
	sta     _actors+24
;
; actors.bbox_y[SKULL] = 1;
;
	sta     _actors+29
;
; actors.xSpeed[SKULL] = 0;
;
	lda     #$00
	sta     _actors+34
;
; actors.ySpeed[SKULL] = 0;
;
	sta     _actors+39
;
; actors.xDir[SKULL] = RIGHT;
;
	lda     #$01
	sta     _actors+44
;
; actors.yDir[SKULL] = UP;
;
	lda     #$FF
	sta     _actors+49
;
; actors.xSpeedFloat[SKULL] = 100;
;
	lda     #$64
	sta     _actors+54
;
; actors.ySpeedFloat[SKULL] = 100;
;
	sta     _actors+59
;
; actors.xRemain[SKULL] = 0;
;
	lda     #$00
	sta     _actors+64
;
; actors.yRemain[SKULL] = 0;
;
	sta     _actors+69
;
; actors.xVelocity[SKULL] = 0;
;
	sta     _actors+74
;
; actors.yVelocity[SKULL] = 0;
;
	sta     _actors+79
;
; actors.minSpeed[SKULL] = 64;
;
	lda     #$40
	sta     _actors+84
;
; actors.maxSpeed[SKULL] = 250;
;
	lda     #$FA
	sta     _actors+89
;
; ppu_on_all();
;
	jsr     _ppu_on_all
;
; if (game_state == MAIN) {
;
	lda     _game_state
	cmp     #$01
	bne     L0003
;
; show_HUD();
;
	jsr     _show_HUD
;
; skull_launched = FALSE;
;
	lda     #$00
	sta     _skull_launched
;
; }
;
L0003:	rts

.endproc

; ---------------------------------------------------------------
; void __near__ load_title_screen (void)
; ---------------------------------------------------------------

.segment	"CODE"

.proc	_load_title_screen: near

.segment	"CODE"

;
; pal_bg((const char*)pal_forest_bg);
;
	lda     #<(_pal_forest_bg)
	ldx     #>(_pal_forest_bg)
	jsr     _pal_bg
;
; pal_spr(pal_spr_01);
;
	lda     #<(_pal_spr_01)
	ldx     #>(_pal_spr_01)
	jsr     _pal_spr
;
; vram_adr(NAMETABLE_A);
;
	ldx     #$20
	lda     #$00
	jsr     _vram_adr
;
; vram_unrle(title_screen);
;
	lda     #<(_title_screen)
	ldx     #>(_title_screen)
	jsr     _vram_unrle
;
; game_state = TITLE;
;
	lda     #$00
	sta     _game_state
;
; }
;
	rts

.endproc

; ---------------------------------------------------------------
; void __near__ remove_brick (char tile_type)
; ---------------------------------------------------------------

.segment	"CODE"

.proc	_remove_brick: near

.segment	"CODE"

;
; void remove_brick(char tile_type) {
;
	jsr     pusha
;
; one_vram_buffer(tile_type, backup_nt_index);
;
	ldy     #$00
	lda     (sp),y
	jsr     pusha
	lda     _backup_nt_index
	ldx     _backup_nt_index+1
	jsr     _one_vram_buffer
;
; c_map[backup_col_index] &= backup_nt_index % 2 ? 0b11110000 : 0b00001111;
;
	lda     _backup_col_index
	clc
	adc     #<(_c_map)
	tay
	lda     _backup_col_index+1
	adc     #>(_c_map)
	tax
	tya
	jsr     pushax
	sta     ptr1
	stx     ptr1+1
	ldx     #$00
	lda     (ptr1,x)
	jsr     pusha0
	lda     _backup_nt_index
	ldx     _backup_nt_index+1
	jsr     pushax
	ldx     #$00
	lda     #$02
	jsr     tosmoda0
	stx     tmp1
	ora     tmp1
	beq     L0002
	lda     #$F0
	jmp     L0003
L0002:	lda     #$0F
L0003:	jsr     tosanda0
	ldy     #$00
	jsr     staspidx
;
; }
;
	jmp     incsp1

.endproc

; ---------------------------------------------------------------
; void __near__ hit_brick (char tile_type)
; ---------------------------------------------------------------

.segment	"CODE"

.proc	_hit_brick: near

.segment	"CODE"

;
; void hit_brick(char tile_type) {
;
	jsr     pusha
;
; remove_brick(tile_type);
;
	ldy     #$00
	lda     (sp),y
	jsr     _remove_brick
;
; }
;
	jmp     incsp1

.endproc

; ---------------------------------------------------------------
; signed char __near__ get_x_speed (void)
; ---------------------------------------------------------------

.segment	"CODE"

.proc	_get_x_speed: near

.segment	"CODE"

;
; actors.xSpeed[z] = actors.xSpeedFloat[z] >> 7;
;
	lda     #<(_actors+30)
	ldx     #>(_actors+30)
	clc
	adc     _z
	bcc     L0002
	inx
L0002:	sta     ptr1
	stx     ptr1+1
	ldy     _z
	lda     _actors+50,y
	lsr     a
	lsr     a
	lsr     a
	lsr     a
	lsr     a
	lsr     a
	lsr     a
	cmp     #$80
	ldy     #$00
	sta     (ptr1),y
;
; actors.xRemain[z] += actors.xSpeedFloat[z] & 0b01111111;  // MODULO 128
;
	lda     #<(_actors+60)
	ldx     #>(_actors+60)
	clc
	adc     _z
	bcc     L0005
	inx
L0005:	sta     sreg
	stx     sreg+1
	sta     ptr1
	stx     ptr1+1
	lda     (ptr1),y
	sta     ptr1
	ldy     _z
	lda     _actors+50,y
	and     #$7F
	clc
	adc     ptr1
	ldy     #$00
	sta     (sreg),y
;
; temp = 0;
;
	tya
	sta     _temp
;
; temp2 = 0;
;
	sta     _temp2
;
; if (actors.xRemain[z] > 127) {
;
	ldy     _z
	lda     _actors+60,y
	cmp     #$80
	bcc     L0007
;
; actors.xRemain[z] &= 0b01111111;
;
	lda     #<(_actors+60)
	ldx     #>(_actors+60)
	clc
	adc     _z
	bcc     L0009
	inx
L0009:	sta     ptr1
	stx     ptr1+1
	ldy     #$00
	lda     (ptr1),y
	and     #$7F
	sta     (ptr1),y
;
; temp = 1;
;
	lda     #$01
	sta     _temp
;
; temp2 = ((actors.xVelocity[z] > 40) || (actors.xVelocity[z] % 2)) ? 1 : 0;
;
L0007:	ldy     _z
	lda     _actors+70,y
	cmp     #$29
	bcs     L001A
	ldy     _z
	lda     _actors+70,y
	and     #$01
	beq     L001C
L001A:	lda     #$01
L001C:	sta     _temp2
;
; if (actors.xVelocity[z]) {
;
	ldy     _z
	lda     _actors+70,y
	beq     L0010
;
; --actors.xVelocity[z];
;
	lda     #<(_actors+70)
	ldx     #>(_actors+70)
	clc
	adc     _z
	bcc     L0012
	inx
L0012:	sta     ptr1
	stx     ptr1+1
	ldy     #$00
	lda     (ptr1),y
	sec
	sbc     #$01
	sta     (ptr1),y
;
; return (actors.xSpeed[z] + temp + temp2) * actors.xDir[z];
;
L0010:	lda     #<(_actors+30)
	ldx     #>(_actors+30)
	clc
	adc     _z
	bcc     L0013
	inx
L0013:	ldy     #$00
	jsr     ldaidx
	clc
	adc     _temp
	bcc     L0019
	inx
	clc
L0019:	adc     _temp2
	bcc     L0017
	inx
L0017:	jsr     pushax
	lda     #<(_actors+40)
	ldx     #>(_actors+40)
	clc
	adc     _z
	bcc     L0014
	inx
L0014:	ldy     #$00
	jsr     ldaidx
	jsr     tosmulax
	ldx     #$00
	cmp     #$80
	bcc     L0001
	dex
;
; }
;
L0001:	rts

.endproc

; ---------------------------------------------------------------
; signed char __near__ get_y_speed (void)
; ---------------------------------------------------------------

.segment	"CODE"

.proc	_get_y_speed: near

.segment	"CODE"

;
; actors.ySpeed[z] = actors.ySpeedFloat[z] >> 7;
;
	lda     #<(_actors+35)
	ldx     #>(_actors+35)
	clc
	adc     _z
	bcc     L0002
	inx
L0002:	sta     ptr1
	stx     ptr1+1
	ldy     _z
	lda     _actors+55,y
	lsr     a
	lsr     a
	lsr     a
	lsr     a
	lsr     a
	lsr     a
	lsr     a
	cmp     #$80
	ldy     #$00
	sta     (ptr1),y
;
; actors.yRemain[z] += actors.ySpeedFloat[z] & 0b01111111;  // MODULO 128
;
	lda     #<(_actors+65)
	ldx     #>(_actors+65)
	clc
	adc     _z
	bcc     L0005
	inx
L0005:	sta     sreg
	stx     sreg+1
	sta     ptr1
	stx     ptr1+1
	lda     (ptr1),y
	sta     ptr1
	ldy     _z
	lda     _actors+55,y
	and     #$7F
	clc
	adc     ptr1
	ldy     #$00
	sta     (sreg),y
;
; temp = 0;
;
	tya
	sta     _temp
;
; temp2 = 0;
;
	sta     _temp2
;
; if (actors.yRemain[z] > 127) {
;
	ldy     _z
	lda     _actors+65,y
	cmp     #$80
	bcc     L0007
;
; actors.yRemain[z] &= 0b01111111;
;
	lda     #<(_actors+65)
	ldx     #>(_actors+65)
	clc
	adc     _z
	bcc     L0009
	inx
L0009:	sta     ptr1
	stx     ptr1+1
	ldy     #$00
	lda     (ptr1),y
	and     #$7F
	sta     (ptr1),y
;
; temp = 1;
;
	lda     #$01
	sta     _temp
;
; temp2 = ((actors.yVelocity[z] > 40) || (actors.yVelocity[z] % 2)) ? 1 : 0;
;
L0007:	ldy     _z
	lda     _actors+75,y
	cmp     #$29
	bcs     L001A
	ldy     _z
	lda     _actors+75,y
	and     #$01
	beq     L001C
L001A:	lda     #$01
L001C:	sta     _temp2
;
; if (actors.yVelocity[z]) {
;
	ldy     _z
	lda     _actors+75,y
	beq     L0010
;
; --actors.yVelocity[z];
;
	lda     #<(_actors+75)
	ldx     #>(_actors+75)
	clc
	adc     _z
	bcc     L0012
	inx
L0012:	sta     ptr1
	stx     ptr1+1
	ldy     #$00
	lda     (ptr1),y
	sec
	sbc     #$01
	sta     (ptr1),y
;
; return (actors.ySpeed[z] + temp + temp2) * actors.yDir[z];
;
L0010:	lda     #<(_actors+35)
	ldx     #>(_actors+35)
	clc
	adc     _z
	bcc     L0013
	inx
L0013:	ldy     #$00
	jsr     ldaidx
	clc
	adc     _temp
	bcc     L0019
	inx
	clc
L0019:	adc     _temp2
	bcc     L0017
	inx
L0017:	jsr     pushax
	lda     #<(_actors+45)
	ldx     #>(_actors+45)
	clc
	adc     _z
	bcc     L0014
	inx
L0014:	ldy     #$00
	jsr     ldaidx
	jsr     tosmulax
	ldx     #$00
	cmp     #$80
	bcc     L0001
	dex
;
; }
;
L0001:	rts

.endproc

; ---------------------------------------------------------------
; void __near__ add_x_speed (unsigned char val)
; ---------------------------------------------------------------

.segment	"CODE"

.proc	_add_x_speed: near

.segment	"CODE"

;
; void add_x_speed(unsigned char val) {
;
	jsr     pusha
;
; temp = actors.xSpeedFloat[z];
;
	ldy     _z
	lda     _actors+50,y
	sta     _temp
;
; actors.xSpeedFloat[z] += val;
;
	lda     #<(_actors+50)
	ldx     #>(_actors+50)
	clc
	adc     _z
	bcc     L0003
	inx
L0003:	sta     sreg
	stx     sreg+1
	sta     ptr1
	stx     ptr1+1
	ldy     #$00
	lda     (ptr1),y
	sta     ptr1
	lda     (sp),y
	clc
	adc     ptr1
	sta     (sreg),y
;
; if (actors.xSpeedFloat[z] > actors.maxSpeed[z] || actors.xSpeedFloat[z] < temp) {
;
	ldy     _z
	lda     _actors+50,y
	ldy     _z
	cmp     _actors+85,y
	beq     L000D
	bcs     L000E
L000D:	ldy     _z
	lda     _actors+50,y
	cmp     _temp
	bcs     L0004
;
; actors.xSpeedFloat[z] = actors.maxSpeed[z];
;
L000E:	lda     #<(_actors+50)
	ldx     #>(_actors+50)
	clc
	adc     _z
	bcc     L000A
	inx
L000A:	sta     ptr1
	stx     ptr1+1
	ldy     _z
	lda     _actors+85,y
	ldy     #$00
	sta     (ptr1),y
;
; }
;
L0004:	jmp     incsp1

.endproc

; ---------------------------------------------------------------
; void __near__ subtract_x_speed (unsigned char val)
; ---------------------------------------------------------------

.segment	"CODE"

.proc	_subtract_x_speed: near

.segment	"CODE"

;
; void subtract_x_speed(unsigned char val) {
;
	jsr     pusha
;
; temp = actors.xSpeedFloat[z];
;
	ldy     _z
	lda     _actors+50,y
	sta     _temp
;
; actors.xSpeedFloat[z] -= val;
;
	lda     #<(_actors+50)
	ldx     #>(_actors+50)
	clc
	adc     _z
	bcc     L0003
	inx
L0003:	sta     sreg
	stx     sreg+1
	sta     ptr1
	stx     ptr1+1
	ldy     #$00
	lda     (ptr1),y
	sec
	sbc     (sp),y
	sta     (sreg),y
;
; if (actors.xSpeedFloat[z] < actors.minSpeed[z] || actors.xSpeedFloat[z] > temp) {
;
	ldy     _z
	lda     _actors+50,y
	ldy     _z
	cmp     _actors+80,y
	bcc     L000E
	lda     _actors+50,y
	cmp     _temp
	beq     L0004
	bcc     L0004
;
; actors.xSpeedFloat[z] = actors.minSpeed[z];
;
L000E:	lda     #<(_actors+50)
	ldx     #>(_actors+50)
	clc
	adc     _z
	bcc     L000A
	inx
L000A:	sta     ptr1
	stx     ptr1+1
	ldy     _z
	lda     _actors+80,y
	ldy     #$00
	sta     (ptr1),y
;
; }
;
L0004:	jmp     incsp1

.endproc

; ---------------------------------------------------------------
; void __near__ add_y_speed (unsigned char val)
; ---------------------------------------------------------------

.segment	"CODE"

.proc	_add_y_speed: near

.segment	"CODE"

;
; void add_y_speed(unsigned char val) {
;
	jsr     pusha
;
; temp = actors.ySpeedFloat[z];
;
	ldy     _z
	lda     _actors+55,y
	sta     _temp
;
; actors.ySpeedFloat[z] += val;
;
	lda     #<(_actors+55)
	ldx     #>(_actors+55)
	clc
	adc     _z
	bcc     L0003
	inx
L0003:	sta     sreg
	stx     sreg+1
	sta     ptr1
	stx     ptr1+1
	ldy     #$00
	lda     (ptr1),y
	sta     ptr1
	lda     (sp),y
	clc
	adc     ptr1
	sta     (sreg),y
;
; if (actors.ySpeedFloat[z] > actors.maxSpeed[z] || actors.ySpeedFloat[z] < temp) {
;
	ldy     _z
	lda     _actors+55,y
	ldy     _z
	cmp     _actors+85,y
	beq     L000D
	bcs     L000E
L000D:	ldy     _z
	lda     _actors+55,y
	cmp     _temp
	bcs     L0004
;
; actors.ySpeedFloat[z] = actors.maxSpeed[z];
;
L000E:	lda     #<(_actors+55)
	ldx     #>(_actors+55)
	clc
	adc     _z
	bcc     L000A
	inx
L000A:	sta     ptr1
	stx     ptr1+1
	ldy     _z
	lda     _actors+85,y
	ldy     #$00
	sta     (ptr1),y
;
; }
;
L0004:	jmp     incsp1

.endproc

; ---------------------------------------------------------------
; void __near__ subtract_y_speed (unsigned char val)
; ---------------------------------------------------------------

.segment	"CODE"

.proc	_subtract_y_speed: near

.segment	"CODE"

;
; void subtract_y_speed(unsigned char val) {
;
	jsr     pusha
;
; temp = actors.ySpeedFloat[z];
;
	ldy     _z
	lda     _actors+55,y
	sta     _temp
;
; actors.ySpeedFloat[z] -= val;
;
	lda     #<(_actors+55)
	ldx     #>(_actors+55)
	clc
	adc     _z
	bcc     L0003
	inx
L0003:	sta     sreg
	stx     sreg+1
	sta     ptr1
	stx     ptr1+1
	ldy     #$00
	lda     (ptr1),y
	sec
	sbc     (sp),y
	sta     (sreg),y
;
; if (actors.ySpeedFloat[z] < actors.minSpeed[z] || actors.ySpeedFloat[z] > temp) {
;
	ldy     _z
	lda     _actors+55,y
	ldy     _z
	cmp     _actors+80,y
	bcc     L000E
	lda     _actors+55,y
	cmp     _temp
	beq     L0004
	bcc     L0004
;
; actors.ySpeedFloat[z] = actors.minSpeed[z];
;
L000E:	lda     #<(_actors+55)
	ldx     #>(_actors+55)
	clc
	adc     _z
	bcc     L000A
	inx
L000A:	sta     ptr1
	stx     ptr1+1
	ldy     _z
	lda     _actors+80,y
	ldy     #$00
	sta     (ptr1),y
;
; }
;
L0004:	jmp     incsp1

.endproc

; ---------------------------------------------------------------
; char __near__ get_collision_type (void)
; ---------------------------------------------------------------

.segment	"CODE"

.proc	_get_collision_type: near

.segment	"CODE"

;
; collision_index = (temp_x_col >> 4) + (((temp_y_col >> 3) - 5) * 16);
;
	lda     _temp_x_col
	lsr     a
	lsr     a
	lsr     a
	lsr     a
	jsr     pusha0
	lda     _temp_y_col
	lsr     a
	lsr     a
	lsr     a
	sec
	sbc     #$05
	bcs     L0002
	ldx     #$FF
L0002:	jsr     aslax4
	jsr     tosaddax
	sta     _collision_index
	stx     _collision_index+1
;
; return (temp_x_col >> 3) % 2 ? c_map[collision_index] & 0x0F : c_map[collision_index] >> 4;
;
	lda     _temp_x_col
	lsr     a
	lsr     a
	lsr     a
	jsr     pusha0
	lda     #$02
	jsr     tosmoda0
	stx     tmp1
	ora     tmp1
	beq     L0003
	lda     _collision_index
	sta     ptr1
	lda     _collision_index+1
	clc
	adc     #>(_c_map)
	sta     ptr1+1
	ldy     #<(_c_map)
	lda     (ptr1),y
	ldx     #$00
	and     #$0F
	rts
L0003:	lda     _collision_index
	sta     ptr1
	lda     _collision_index+1
	clc
	adc     #>(_c_map)
	sta     ptr1+1
	ldy     #<(_c_map)
	lda     (ptr1),y
	lsr     a
	lsr     a
	lsr     a
	lsr     a
	ldx     #$00
;
; }
;
	rts

.endproc

; ---------------------------------------------------------------
; char __near__ set_collision_data (void)
; ---------------------------------------------------------------

.segment	"CODE"

.proc	_set_collision_data: near

.segment	"CODE"

;
; backup_nt_index = NTADR_A((temp_x_col >> 3), (temp_y_col >> 3));
;
	ldx     #$00
	lda     _temp_y_col
	lsr     a
	lsr     a
	lsr     a
	jsr     aslax4
	stx     tmp1
	asl     a
	rol     tmp1
	ldx     tmp1
	sta     ptr1
	stx     ptr1+1
	lda     _temp_x_col
	lsr     a
	lsr     a
	lsr     a
	ora     ptr1
	sta     _backup_nt_index
	lda     ptr1+1
	ora     #$20
	sta     _backup_nt_index+1
;
; backup_col_type = get_collision_type();
;
	jsr     _get_collision_type
	sta     _backup_col_type
;
; backup_col_index = collision_index;
;
	lda     _collision_index+1
	sta     _backup_col_index+1
	lda     _collision_index
	sta     _backup_col_index
;
; return backup_col_type;
;
	ldx     #$00
	lda     _backup_col_type
;
; }
;
	rts

.endproc

; ---------------------------------------------------------------
; void __near__ do_skull_tile_collision (void)
; ---------------------------------------------------------------

.segment	"CODE"

.proc	_do_skull_tile_collision: near

.segment	"CODE"

;
; switch (backup_col_type) {
;
	lda     _backup_col_type
;
; }
;
	cmp     #$01
	bne     L001A
;
; }
;
	rts
;
; }
;
L001A:	cmp     #$02
	beq     L0005
	cmp     #$03
	beq     L0016
	cmp     #$04
	beq     L0017
	cmp     #$05
	jeq     L0018
	cmp     #$06
	jeq     L0019
	cmp     #$07
	bne     L001B
;
; }
;
	rts
;
; }
;
L001B:	cmp     #$08
	bne     L001C
;
; }
;
	rts
;
; }
;
L001C:	cmp     #$09
	beq     L0003
	cmp     #$0A
	beq     L0003
	cmp     #$0B
	beq     L0003
	cmp     #$0C
	beq     L0003
	cmp     #$0D
	beq     L0003
	cmp     #$0E
	beq     L0003
	cmp     #$0F
	beq     L0003
	rts
;
; if (p1_health) {
;
L0005:	lda     _p1_health
	beq     L0006
;
; --p1_health;
;
	dec     _p1_health
;
; update_health();
;
L0006:	jmp     _update_health
;
; remove_brick(TILE_BACK);
;
L0016:	lda     #$10
	jsr     _remove_brick
;
; ++backup_nt_index;
;
	inc     _backup_nt_index
	bne     L0008
	inc     _backup_nt_index+1
;
; hit_brick(TILE_BACK);
;
L0008:	lda     #$10
	jsr     _hit_brick
;
; add_xp(1, HUNDREDS);
;
	lda     #$01
	jsr     pusha
	lda     #$05
	jmp     _add_xp
;
; remove_brick(TILE_BACK);
;
L0017:	lda     #$10
	jsr     _remove_brick
;
; --backup_nt_index;
;
	lda     _backup_nt_index
	sec
	sbc     #$01
	sta     _backup_nt_index
	bcs     L000A
	dec     _backup_nt_index+1
;
; hit_brick(TILE_BACK);
;
L000A:	lda     #$10
	jsr     _hit_brick
;
; add_xp(1, HUNDREDS);
;
	lda     #$01
	jsr     pusha
	lda     #$05
	jmp     _add_xp
;
; hit_brick(0x11);
;
L0018:	lda     #$11
	jsr     _hit_brick
;
; add_xp(5, TENS);
;
	lda     #$05
	jsr     pusha
	lda     #$06
	jmp     _add_xp
;
; hit_brick(TILE_BACK_GRASS);
;
L0019:	lda     #$23
	jmp     _hit_brick
;
; }
;
L0003:	rts

.endproc

; ---------------------------------------------------------------
; char __near__ is_skull_h_beside (void)
; ---------------------------------------------------------------

.segment	"CODE"

.proc	_is_skull_h_beside: near

.segment	"CODE"

;
; return (actors.y[SKULL] + 1 < actors.y[pad_index] + 6) && (actors.y[SKULL] + 7 > actors.y[pad_index] + 2);
;
	ldx     #$00
	lda     _actors+9
	clc
	adc     #$01
	bcc     L0002
	inx
L0002:	jsr     pushax
	ldy     _pad_index
	ldx     #$00
	lda     _actors+5,y
	clc
	adc     #$06
	bcc     L0004
	inx
L0004:	jsr     tosicmp
	bpl     L0005
	ldx     #$00
	lda     _actors+9
	clc
	adc     #$07
	bcc     L0006
	inx
L0006:	jsr     pushax
	ldy     _pad_index
	ldx     #$00
	lda     _actors+5,y
	clc
	adc     #$02
	bcc     L0008
	inx
L0008:	jsr     tosicmp
	beq     L0005
	bpl     L0009
L0005:	ldx     #$00
	txa
	rts
L0009:	lda     #$01
	ldx     #$00
;
; }
;
	rts

.endproc

; ---------------------------------------------------------------
; char __near__ is_skull_v_beside (void)
; ---------------------------------------------------------------

.segment	"CODE"

.proc	_is_skull_v_beside: near

.segment	"CODE"

;
; return (actors.x[SKULL] + 7 > actors.x[pad_index] + 2) &&
;
	ldx     #$00
	lda     _actors+4
	clc
	adc     #$07
	bcc     L0002
	inx
L0002:	jsr     pushax
	ldy     _pad_index
	ldx     #$00
	lda     _actors,y
	clc
	adc     #$02
	bcc     L0004
	inx
L0004:	jsr     tosicmp
	bmi     L0005
	beq     L0005
;
; (actors.x[SKULL] + 1 < actors.x[pad_index] + 6);
;
	ldx     #$00
	lda     _actors+4
	clc
	adc     #$01
	bcc     L0006
	inx
L0006:	jsr     pushax
	ldy     _pad_index
	ldx     #$00
	lda     _actors,y
	clc
	adc     #$06
	bcc     L0008
	inx
L0008:	jsr     tosicmp
	bmi     L0009
L0005:	ldx     #$00
	txa
	rts
L0009:	lda     #$01
	ldx     #$00
;
; }
;
	rts

.endproc

; ---------------------------------------------------------------
; char __near__ is_skull_collision_paddle (void)
; ---------------------------------------------------------------

.segment	"CODE"

.proc	_is_skull_collision_paddle: near

.segment	"CODE"

;
; return (temp_x < actors.x[pad_index] + actors.width[pad_index] + actors.bbox_x[pad_index] &&
;
	lda     _temp_x
	jsr     pusha0
	ldy     _pad_index
	lda     _actors+10,y
	clc
	ldy     _pad_index
	adc     _actors,y
	bcc     L0011
	inx
L0011:	sta     ptr1
	stx     ptr1+1
	ldy     _pad_index
	lda     _actors+20,y
	clc
	adc     ptr1
	ldx     ptr1+1
	bcc     L0012
	inx
L0012:	jsr     tosicmp
	bpl     L0005
;
; temp_x + actors.width[SKULL] > actors.x[pad_index] + actors.bbox_x[pad_index] &&
;
	ldx     #$00
	lda     _temp_x
	clc
	adc     _actors+14
	bcc     L000F
	inx
L000F:	jsr     pushax
	ldy     _pad_index
	ldx     #$00
	lda     _actors+20,y
	clc
	ldy     _pad_index
	adc     _actors,y
	bcc     L0013
	inx
L0013:	jsr     tosicmp
	bmi     L0005
	beq     L0005
;
; temp_y < actors.y[pad_index] + actors.height[pad_index] + actors.bbox_y[pad_index] &&
;
	lda     _temp_y
	jsr     pusha0
	ldy     _pad_index
	lda     _actors+15,y
	clc
	ldy     _pad_index
	adc     _actors+5,y
	bcc     L0014
	inx
L0014:	sta     ptr1
	stx     ptr1+1
	ldy     _pad_index
	lda     _actors+25,y
	clc
	adc     ptr1
	ldx     ptr1+1
	bcc     L0015
	inx
L0015:	jsr     tosicmp
	bpl     L0005
;
; temp_y + actors.height[SKULL] > actors.y[pad_index] + actors.bbox_y[pad_index]);
;
	ldx     #$00
	lda     _temp_y
	clc
	adc     _actors+19
	bcc     L0010
	inx
L0010:	jsr     pushax
	ldy     _pad_index
	ldx     #$00
	lda     _actors+25,y
	clc
	ldy     _pad_index
	adc     _actors+5,y
	bcc     L0016
	inx
L0016:	jsr     tosicmp
	beq     L0005
	bpl     L000D
L0005:	ldx     #$00
	txa
	rts
L000D:	lda     #$01
	ldx     #$00
;
; }
;
	rts

.endproc

; ---------------------------------------------------------------
; char __near__ is_paddle_collision_skull (void)
; ---------------------------------------------------------------

.segment	"CODE"

.proc	_is_paddle_collision_skull: near

.segment	"CODE"

;
; return (actors.x[SKULL] + 7 > actors.x[pad_index] + actors.bbox_x[pad_index] &&
;
	ldx     #$00
	lda     _actors+4
	clc
	adc     #$07
	bcc     L0002
	inx
L0002:	jsr     pushax
	ldy     _pad_index
	ldx     #$00
	lda     _actors+20,y
	clc
	ldy     _pad_index
	adc     _actors,y
	bcc     L0013
	inx
L0013:	jsr     tosicmp
	jmi     L0005
	jeq     L0005
;
; actors.y[SKULL] + 7 > actors.y[pad_index] + actors.bbox_y[pad_index] &&
;
	ldx     #$00
	lda     _actors+9
	clc
	adc     #$07
	bcc     L0006
	inx
L0006:	jsr     pushax
	ldy     _pad_index
	ldx     #$00
	lda     _actors+25,y
	clc
	ldy     _pad_index
	adc     _actors+5,y
	bcc     L0014
	inx
L0014:	jsr     tosicmp
	bmi     L0005
	beq     L0005
;
; actors.x[SKULL] + 1 < actors.x[pad_index] + actors.width[pad_index] + actors.bbox_x[pad_index] &&
;
	ldx     #$00
	lda     _actors+4
	clc
	adc     #$01
	bcc     L0009
	inx
L0009:	jsr     pushax
	ldy     _pad_index
	ldx     #$00
	lda     _actors+10,y
	clc
	ldy     _pad_index
	adc     _actors,y
	bcc     L0015
	inx
L0015:	sta     ptr1
	stx     ptr1+1
	ldy     _pad_index
	lda     _actors+20,y
	clc
	adc     ptr1
	ldx     ptr1+1
	bcc     L0016
	inx
L0016:	jsr     tosicmp
	bpl     L0005
;
; actors.y[SKULL] + 1 < actors.y[pad_index] + actors.height[pad_index] + actors.bbox_y[pad_index]);
;
	ldx     #$00
	lda     _actors+9
	clc
	adc     #$01
	bcc     L000D
	inx
L000D:	jsr     pushax
	ldy     _pad_index
	ldx     #$00
	lda     _actors+15,y
	clc
	ldy     _pad_index
	adc     _actors+5,y
	bcc     L0017
	inx
L0017:	sta     ptr1
	stx     ptr1+1
	ldy     _pad_index
	lda     _actors+25,y
	clc
	adc     ptr1
	ldx     ptr1+1
	bcc     L0018
	inx
L0018:	jsr     tosicmp
	bmi     L0011
L0005:	ldx     #$00
	txa
	rts
L0011:	lda     #$01
	ldx     #$00
;
; }
;
	rts

.endproc

; ---------------------------------------------------------------
; void __near__ move_horizontal_paddle (void)
; ---------------------------------------------------------------

.segment	"CODE"

.proc	_move_horizontal_paddle: near

.segment	"CODE"

;
; temp_x_col = actors.x[pad_index];
;
	ldy     _pad_index
	lda     _actors,y
	sta     _temp_x_col
;
; temp_y_col = actors.y[pad_index];
;
	ldy     _pad_index
	lda     _actors+5,y
	sta     _temp_y_col
;
; if (actors.xDir[pad_index] == LEFT) {
;
	lda     #<(_actors+40)
	ldx     #>(_actors+40)
	clc
	adc     _pad_index
	bcc     L0005
	inx
L0005:	ldy     #$00
	jsr     ldaidx
	cmp     #$FF
	bne     L0004
;
; --temp_x_col;
;
	dec     _temp_x_col
;
; if (get_collision_type()) {
;
	jsr     _get_collision_type
	tax
	beq     L000B
;
; ++temp_x_col;
;
	inc     _temp_x_col
;
; } else {
;
	jmp     L0018
;
; temp_x_col += actors.width[pad_index];
;
L0004:	ldy     _pad_index
	lda     _actors+10,y
	clc
	adc     _temp_x_col
	sta     _temp_x_col
;
; if (get_collision_type()) {
;
	jsr     _get_collision_type
	tax
	beq     L000B
;
; temp_x_col = actors.x[pad_index];
;
	ldy     _pad_index
	lda     _actors,y
;
; } else {
;
	jmp     L0017
;
; temp_x_col = actors.x[pad_index] + get_x_speed();
;
L000B:	ldy     _pad_index
	lda     _actors,y
	jsr     pusha0
	jsr     _get_x_speed
	jsr     tosaddax
L0017:	sta     _temp_x_col
;
; if ((pad1 & 0b00000011) && is_paddle_collision_skull()) {
;
L0018:	lda     _pad1
	and     #$03
	beq     L000F
	jsr     _is_paddle_collision_skull
	tax
	beq     L000F
;
; if (is_skull_h_beside()) {
;
	jsr     _is_skull_h_beside
	tax
	beq     L000F
;
; actors.xVelocity[SKULL] = 80;
;
	lda     #$50
	sta     _actors+74
;
; actors.x[pad_index] = temp_x_col;
;
L000F:	ldy     _pad_index
	lda     _temp_x_col
	sta     _actors,y
;
; if (actors.xSpeedFloat[pad_index]) {
;
	ldy     _pad_index
	lda     _actors+50,y
	beq     L0015
;
; subtract_x_speed(16);
;
	lda     #$10
	jmp     _subtract_x_speed
;
; }
;
L0015:	rts

.endproc

; ---------------------------------------------------------------
; void __near__ move_vertical_paddle (void)
; ---------------------------------------------------------------

.segment	"CODE"

.proc	_move_vertical_paddle: near

.segment	"CODE"

;
; temp_x_col = actors.x[pad_index];
;
	ldy     _pad_index
	lda     _actors,y
	sta     _temp_x_col
;
; temp_y_col = actors.y[pad_index];
;
	ldy     _pad_index
	lda     _actors+5,y
	sta     _temp_y_col
;
; if (actors.yDir[pad_index] == UP) {
;
	lda     #<(_actors+45)
	ldx     #>(_actors+45)
	clc
	adc     _pad_index
	bcc     L0005
	inx
L0005:	ldy     #$00
	jsr     ldaidx
	cmp     #$FF
	bne     L0004
;
; --temp_y_col;
;
	dec     _temp_y_col
;
; if (get_collision_type()) {
;
	jsr     _get_collision_type
	tax
	beq     L000B
;
; ++temp_y_col;
;
	inc     _temp_y_col
;
; } else {
;
	jmp     L0018
;
; temp_y_col += actors.height[pad_index];
;
L0004:	ldy     _pad_index
	lda     _actors+15,y
	clc
	adc     _temp_y_col
	sta     _temp_y_col
;
; if (get_collision_type()) {
;
	jsr     _get_collision_type
	tax
	beq     L000B
;
; temp_y_col = actors.y[pad_index];
;
	ldy     _pad_index
	lda     _actors+5,y
;
; } else {
;
	jmp     L0017
;
; temp_y_col = actors.y[pad_index] + get_y_speed();
;
L000B:	ldy     _pad_index
	lda     _actors+5,y
	jsr     pusha0
	jsr     _get_y_speed
	jsr     tosaddax
L0017:	sta     _temp_y_col
;
; if ((pad1 & 0b00001100) && is_paddle_collision_skull()) {
;
L0018:	lda     _pad1
	and     #$0C
	beq     L000F
	jsr     _is_paddle_collision_skull
	tax
	beq     L000F
;
; if (is_skull_v_beside()) {
;
	jsr     _is_skull_v_beside
	tax
	beq     L000F
;
; actors.yVelocity[SKULL] = 80;
;
	lda     #$50
	sta     _actors+79
;
; actors.y[pad_index] = temp_y_col;
;
L000F:	ldy     _pad_index
	lda     _temp_y_col
	sta     _actors+5,y
;
; if (actors.ySpeedFloat[pad_index]) {
;
	ldy     _pad_index
	lda     _actors+55,y
	beq     L0015
;
; subtract_y_speed(16);
;
	lda     #$10
	jmp     _subtract_y_speed
;
; }
;
L0015:	rts

.endproc

; ---------------------------------------------------------------
; void __near__ check_paddle_collision (void)
; ---------------------------------------------------------------

.segment	"CODE"

.proc	_check_paddle_collision: near

.segment	"CODE"

;
; temp = FALSE;
;
	lda     #$00
	sta     _temp
;
; if (actors.y[SKULL] > 127) {
;
	lda     _actors+9
	cmp     #$80
	bcc     L004F
;
; temp = TRUE;
;
	lda     #$01
	sta     _temp
;
; pad_index = 0;
;
	lda     #$00
;
; } else if (paddle_count > 1) {
;
	jmp     L0045
L004F:	lda     _paddle_count
	cmp     #$02
	bcc     L0004
;
; temp = TRUE;
;
	lda     #$01
	sta     _temp
;
; pad_index = 1;
;
L0045:	sta     _pad_index
;
; if (temp) {
;
L0004:	lda     _temp
	jeq     L0052
;
; if (is_skull_collision_paddle()) {
;
	jsr     _is_skull_collision_paddle
	tax
	jeq     L0052
;
; if (temp_x < actors.x[pad_index] + (actors.width[pad_index] >> 1)) {
;
	lda     _temp_x
	jsr     pusha0
	ldy     _pad_index
	lda     _actors+10,y
	lsr     a
	clc
	ldy     _pad_index
	adc     _actors,y
	bcc     L003F
	inx
L003F:	jsr     tosicmp
	bpl     L0007
;
; if (temp_x <= actors.x[pad_index] + 4) {
;
	lda     _temp_x
	jsr     pusha0
	ldy     _pad_index
	lda     _actors,y
	clc
	adc     #$04
	bcc     L000C
	ldx     #$01
L000C:	jsr     tosicmp
	beq     L004B
	bpl     L000A
;
; actors.xDir[SKULL] = LEFT;
;
L004B:	lda     #$FF
	sta     _actors+44
;
; actors.xSpeedFloat[SKULL] = 140;
;
	lda     #$8C
	sta     _actors+54
;
; actors.ySpeedFloat[SKULL] = 60;
;
	lda     #$3C
;
; } else if (temp_x <= actors.x[pad_index] + 8) {
;
	jmp     L0046
L000A:	lda     _temp_x
	jsr     pusha0
	ldy     _pad_index
	lda     _actors,y
	clc
	adc     #$08
	bcc     L0010
	ldx     #$01
L0010:	jsr     tosicmp
	beq     L004C
	bpl     L0018
;
; actors.xDir[SKULL] = LEFT;
;
L004C:	lda     #$FF
	sta     _actors+44
;
; actors.xSpeedFloat[SKULL] = 100;
;
	lda     #$64
	sta     _actors+54
;
; } else {
;
	jmp     L0046
;
; if (temp_x >= actors.x[pad_index] + actors.width[pad_index] - 4) {
;
L0007:	lda     _temp_x
	jsr     pusha0
	ldy     _pad_index
	lda     _actors+10,y
	clc
	ldy     _pad_index
	adc     _actors,y
	bcc     L0040
	inx
L0040:	sec
	sbc     #$04
	bcs     L0016
	dex
L0016:	jsr     tosicmp
	bmi     L0013
;
; actors.xDir[SKULL] = RIGHT;
;
	lda     #$01
	sta     _actors+44
;
; actors.xSpeedFloat[SKULL] = 140;
;
	lda     #$8C
	sta     _actors+54
;
; actors.ySpeedFloat[SKULL] = 60;
;
	lda     #$3C
;
; } else if (temp_x >= actors.x[pad_index] + actors.width[pad_index] - 8) {
;
	jmp     L0046
L0013:	lda     _temp_x
	jsr     pusha0
	ldy     _pad_index
	lda     _actors+10,y
	clc
	ldy     _pad_index
	adc     _actors,y
	bcc     L0041
	inx
L0041:	sec
	sbc     #$08
	bcs     L001B
	dex
L001B:	jsr     tosicmp
	bmi     L0018
;
; actors.xDir[SKULL] = RIGHT;
;
	lda     #$01
	sta     _actors+44
;
; actors.xSpeedFloat[SKULL] = 100;
;
	lda     #$64
	sta     _actors+54
;
; } else {
;
	jmp     L0046
;
; actors.xSpeedFloat[SKULL] = 60;
;
L0018:	lda     #$3C
	sta     _actors+54
;
; actors.ySpeedFloat[SKULL] = 140;
;
	lda     #$8C
L0046:	sta     _actors+59
;
; if (actors.y[SKULL] < actors.y[pad_index]) {
;
	lda     _actors+9
	ldy     _pad_index
	cmp     _actors+5,y
	bcs     L0050
;
; actors.yDir[SKULL] = UP;
;
	lda     #$FF
;
; } else {
;
	jmp     L0047
;
; actors.yDir[SKULL] = DOWN;
;
L0050:	lda     #$01
L0047:	sta     _actors+49
;
; temp = FALSE;
;
	lda     #$00
L0052:	sta     _temp
;
; if (paddle_count > 2) {
;
	lda     _paddle_count
	cmp     #$03
	bcc     L0023
;
; if (actors.x[SKULL] < 127) {
;
	lda     _actors+4
	cmp     #$7F
	bcs     L0053
;
; temp = TRUE;
;
	lda     #$01
	sta     _temp
;
; pad_index = 2;
;
	lda     #$02
;
; } else if (paddle_count > 3) {
;
	jmp     L0048
L0053:	lda     _paddle_count
	cmp     #$04
	bcc     L0023
;
; temp = TRUE;
;
	lda     #$01
	sta     _temp
;
; pad_index = 3;
;
	lda     #$03
L0048:	sta     _pad_index
;
; if (temp) {
;
L0023:	lda     _temp
	bne     L0059
;
; }
;
	rts
;
; if (is_skull_collision_paddle()) {
;
L0059:	jsr     _is_skull_collision_paddle
	tax
	bne     L005A
;
; }
;
	rts
;
; if (temp_y < actors.y[pad_index] + (actors.height[pad_index] >> 1)) {
;
L005A:	lda     _temp_y
	jsr     pusha0
	ldy     _pad_index
	lda     _actors+15,y
	lsr     a
	clc
	ldy     _pad_index
	adc     _actors+5,y
	bcc     L0042
	inx
L0042:	jsr     tosicmp
	bpl     L0026
;
; if (temp_y <= actors.y[pad_index] + 4) {
;
	lda     _temp_y
	jsr     pusha0
	ldy     _pad_index
	lda     _actors+5,y
	clc
	adc     #$04
	bcc     L002B
	ldx     #$01
L002B:	jsr     tosicmp
	beq     L004D
	bpl     L0029
;
; actors.yDir[SKULL] = UP;
;
L004D:	lda     #$FF
	sta     _actors+49
;
; actors.xSpeedFloat[SKULL] = 60;
;
	lda     #$3C
	sta     _actors+54
;
; actors.ySpeedFloat[SKULL] = 140;
;
	lda     #$8C
;
; } else if (temp_x <= actors.x[pad_index] + 8) {
;
	jmp     L0049
L0029:	lda     _temp_x
	jsr     pusha0
	ldy     _pad_index
	lda     _actors,y
	clc
	adc     #$08
	bcc     L002F
	ldx     #$01
L002F:	jsr     tosicmp
	beq     L004E
	bpl     L0037
;
; actors.yDir[SKULL] = UP;
;
L004E:	lda     #$FF
	sta     _actors+49
;
; actors.xSpeedFloat[SKULL] = 100;
;
	lda     #$64
	sta     _actors+54
;
; } else {
;
	jmp     L0049
;
; if (temp_y >= actors.y[pad_index] + actors.height[pad_index] - 4) {
;
L0026:	lda     _temp_y
	jsr     pusha0
	ldy     _pad_index
	lda     _actors+15,y
	clc
	ldy     _pad_index
	adc     _actors+5,y
	bcc     L0043
	inx
L0043:	sec
	sbc     #$04
	bcs     L0035
	dex
L0035:	jsr     tosicmp
	bmi     L0032
;
; actors.yDir[SKULL] = DOWN;
;
	lda     #$01
	sta     _actors+49
;
; actors.xSpeedFloat[SKULL] = 60;
;
	lda     #$3C
	sta     _actors+54
;
; actors.ySpeedFloat[SKULL] = 140;
;
	lda     #$8C
;
; } else if (temp_x >= actors.x[pad_index] + actors.width[pad_index] - 8) {
;
	jmp     L0049
L0032:	lda     _temp_x
	jsr     pusha0
	ldy     _pad_index
	lda     _actors+10,y
	clc
	ldy     _pad_index
	adc     _actors,y
	bcc     L0044
	inx
L0044:	sec
	sbc     #$08
	bcs     L003A
	dex
L003A:	jsr     tosicmp
	bmi     L0037
;
; actors.yDir[SKULL] = RIGHT;
;
	lda     #$01
	sta     _actors+49
;
; actors.xSpeedFloat[SKULL] = 100;
;
	lda     #$64
	sta     _actors+54
;
; } else {
;
	jmp     L0049
;
; actors.xSpeedFloat[SKULL] = 140;
;
L0037:	lda     #$8C
	sta     _actors+54
;
; actors.ySpeedFloat[SKULL] = 60;
;
	lda     #$3C
L0049:	sta     _actors+59
;
; if (actors.x[SKULL] < actors.x[pad_index]) {
;
	lda     _actors+4
	ldy     _pad_index
	cmp     _actors,y
	bcs     L0054
;
; actors.xDir[SKULL] = LEFT;
;
	lda     #$FF
;
; } else {
;
	jmp     L004A
;
; actors.xDir[SKULL] = RIGHT;
;
L0054:	lda     #$01
L004A:	sta     _actors+44
;
; }
;
	rts

.endproc

; ---------------------------------------------------------------
; void __near__ check_main_input (void)
; ---------------------------------------------------------------

.segment	"CODE"

.proc	_check_main_input: near

.segment	"CODE"

;
; for (pad_index = 0; pad_index < paddle_count; ++pad_index) {
;
	lda     #$00
	sta     _pad_index
L0016:	lda     _pad_index
	cmp     _paddle_count
	bcs     L001A
;
; z = pad_index;
;
	sta     _z
;
; if (pad_index < 2) {
;
	lda     _pad_index
	cmp     #$02
	bcs     L0018
;
; if (pad1 & PAD_LEFT) {
;
	lda     _pad1
	and     #$02
	beq     L0017
;
; add_x_speed(80);
;
	lda     #$50
	jsr     _add_x_speed
;
; actors.xDir[pad_index] = LEFT;
;
	ldy     _pad_index
	lda     #$FF
	sta     _actors+40,y
;
; if (pad1 & PAD_RIGHT) {
;
L0017:	lda     _pad1
	and     #$01
	beq     L0009
;
; add_x_speed(80);
;
	lda     #$50
	jsr     _add_x_speed
;
; actors.xDir[pad_index] = RIGHT;
;
	ldy     _pad_index
	lda     #$01
	sta     _actors+40,y
;
; move_horizontal_paddle();
;
L0009:	jsr     _move_horizontal_paddle
;
; } else {
;
	jmp     L0004
;
; if (pad1 & PAD_UP) {
;
L0018:	lda     _pad1
	and     #$08
	beq     L0019
;
; add_y_speed(80);
;
	lda     #$50
	jsr     _add_y_speed
;
; actors.yDir[pad_index] = UP;
;
	ldy     _pad_index
	lda     #$FF
	sta     _actors+45,y
;
; if (pad1 & PAD_DOWN) {
;
L0019:	lda     _pad1
	and     #$04
	beq     L000E
;
; add_y_speed(80);
;
	lda     #$50
	jsr     _add_y_speed
;
; actors.yDir[pad_index] = DOWN;
;
	ldy     _pad_index
	lda     #$01
	sta     _actors+45,y
;
; move_vertical_paddle();
;
L000E:	jsr     _move_vertical_paddle
;
; for (pad_index = 0; pad_index < paddle_count; ++pad_index) {
;
L0004:	inc     _pad_index
	jmp     L0016
;
; if (pad1 & PAD_A) {
;
L001A:	lda     _pad1
	and     #$80
	beq     L001B
;
; if (skull_launched) {
;
	lda     _skull_launched
;
; } else {
;
	bne     L001B
;
; skull_launched = TRUE;
;
	lda     #$01
	sta     _skull_launched
;
; if (pad1 & PAD_B) {
;
L001B:	lda     _pad1
	ldx     #$00
	and     #$40
	stx     tmp1
	ora     tmp1
;
; if (pad1 & PAD_START) {
;
	lda     _pad1
	and     #$10
	ora     tmp1
;
; if (pad1 & PAD_SELECT) {
;
	lda     _pad1
	and     #$20
	ora     tmp1
;
; }
;
	rts

.endproc

; ---------------------------------------------------------------
; void __near__ update_skull (void)
; ---------------------------------------------------------------

.segment	"CODE"

.proc	_update_skull: near

.segment	"CODE"

;
; backup_col_type = NULL;
;
	ldx     #$00
	stx     _backup_col_type
;
; if (skull_launched) {
;
	lda     _skull_launched
	jeq     L0065
;
; z = SKULL;
;
	lda     #$04
	sta     _z
;
; temp_x = actors.x[SKULL] + get_x_speed();
;
	lda     _actors+4
	jsr     pusha0
	jsr     _get_x_speed
	jsr     tosaddax
	sta     _temp_x
;
; temp_y = actors.y[SKULL] + get_y_speed();
;
	lda     _actors+9
	jsr     pusha0
	jsr     _get_y_speed
	jsr     tosaddax
	sta     _temp_y
;
; ++temp_x;
;
	inc     _temp_x
;
; ++temp_y;
;
	inc     _temp_y
;
; if (actors.xDir[SKULL] == RIGHT) {
;
	lda     _actors+44
	cmp     #$01
	jne     L0003
;
; if (actors.yDir[SKULL] == DOWN) {
;
	lda     _actors+49
	cmp     #$01
	jne     L0005
;
; temp_x_col = temp_x;
;
	lda     _temp_x
	sta     _temp_x_col
;
; temp_y_col = temp_y + actors.height[SKULL];
;
	lda     _temp_y
	clc
	adc     _actors+19
	sta     _temp_y_col
;
; if (set_collision_data()) {
;
	jsr     _set_collision_data
	tax
	beq     L004D
;
; if (backup_col_type != COL_TYPE_SOFT) {
;
	lda     _backup_col_type
	cmp     #$06
	beq     L0008
;
; actors.yDir[SKULL] = UP;
;
	lda     #$FF
	sta     _actors+49
;
; temp_y -= temp_y % 8;
;
	lda     _temp_y
	and     #$07
	eor     #$FF
	sec
	adc     _temp_y
	sta     _temp_y
;
; do_skull_tile_collision();
;
L0008:	jsr     _do_skull_tile_collision
;
; temp_x_col += actors.width[SKULL];
;
L004D:	lda     _actors+14
	clc
	adc     _temp_x_col
	sta     _temp_x_col
;
; temp_y_col = temp_y;
;
	lda     _temp_y
	sta     _temp_y_col
;
; if (set_collision_data()) {
;
	jsr     _set_collision_data
	tax
	beq     L004E
;
; if (backup_col_type != COL_TYPE_SOFT) {
;
	lda     _backup_col_type
	cmp     #$06
	jeq     L0043
;
; actors.xDir[SKULL] = LEFT;
;
	lda     #$FF
	sta     _actors+44
;
; temp_x -= temp_x % 8;
;
	lda     _temp_x
	and     #$07
	eor     #$FF
	sec
	adc     _temp_x
	sta     _temp_x
;
; } else {
;
	jmp     L0043
;
; temp_y_col += actors.height[SKULL];
;
L004E:	lda     _actors+19
	clc
	adc     _temp_y_col
	sta     _temp_y_col
;
; if (set_collision_data()) {
;
	jsr     _set_collision_data
	tax
	jeq     L003B
;
; if (backup_col_type != COL_TYPE_SOFT) {
;
	lda     _backup_col_type
	cmp     #$06
	jeq     L0043
;
; if (temp_y % 8 < COL_OFFSET && temp_x % 8 > 3) {
;
	lda     _temp_y
	and     #$07
	cmp     #$05
	lda     #$00
	sbc     #$00
	bvc     L000F
	eor     #$80
L000F:	bpl     L000E
	lda     _temp_x
	and     #$07
	cmp     #$04
	lda     #$00
	sbc     #$00
	bvs     L0011
	eor     #$80
L0011:	bpl     L000E
;
; actors.yDir[SKULL] = UP;
;
	lda     #$FF
	sta     _actors+49
;
; temp_y -= temp_y % 8;
;
	lda     _temp_y
;
; } else {
;
	jmp     L006B
;
; actors.xDir[SKULL] = LEFT;
;
L000E:	lda     #$FF
	sta     _actors+44
;
; temp_x -= temp_x % 8;
;
	lda     _temp_x
	and     #$07
	eor     #$FF
	sec
	adc     _temp_x
	sta     _temp_x
;
; } else {
;
	jmp     L0043
;
; temp_x_col = temp_x;
;
L0005:	lda     _temp_x
	sta     _temp_x_col
;
; temp_y_col = temp_y;
;
	lda     _temp_y
	sta     _temp_y_col
;
; if (set_collision_data()) {
;
	jsr     _set_collision_data
	tax
	beq     L0052
;
; if (backup_col_type != COL_TYPE_SOFT) {
;
	lda     _backup_col_type
	cmp     #$06
	beq     L0017
;
; actors.yDir[SKULL] = DOWN;
;
	lda     #$01
	sta     _actors+49
;
; temp_y += 8;
;
	lda     #$08
	clc
	adc     _temp_y
	sta     _temp_y
;
; temp_y -= temp_y % 8;
;
	and     #$07
	eor     #$FF
	sec
	adc     _temp_y
	sta     _temp_y
;
; do_skull_tile_collision();
;
L0017:	jsr     _do_skull_tile_collision
;
; temp_x_col = temp_x + actors.width[SKULL];
;
L0052:	lda     _temp_x
	clc
	adc     _actors+14
	sta     _temp_x_col
;
; temp_y_col += actors.height[SKULL];
;
	lda     _actors+19
	clc
	adc     _temp_y_col
	sta     _temp_y_col
;
; if (set_collision_data()) {
;
	jsr     _set_collision_data
	tax
	beq     L0053
;
; if (backup_col_type != COL_TYPE_SOFT) {
;
	lda     _backup_col_type
	cmp     #$06
	jeq     L0043
;
; actors.xDir[SKULL] = LEFT;
;
	lda     #$FF
	sta     _actors+44
;
; temp_x -= temp_x % 8;
;
	lda     _temp_x
	and     #$07
	eor     #$FF
	sec
	adc     _temp_x
	sta     _temp_x
;
; } else {
;
	jmp     L0043
;
; temp_y_col = temp_y;
;
L0053:	lda     _temp_y
	sta     _temp_y_col
;
; if (set_collision_data()) {
;
	jsr     _set_collision_data
	tax
	jeq     L003B
;
; if (backup_col_type != COL_TYPE_SOFT) {
;
	lda     _backup_col_type
	cmp     #$06
	jeq     L0043
;
; if (temp_y % 8 < COL_OFFSET && temp_x % 8 < 3) {
;
	lda     _temp_y
	and     #$07
	cmp     #$05
	lda     #$00
	sbc     #$00
	bvc     L001E
	eor     #$80
L001E:	jpl     L0063
	lda     _temp_x
	and     #$07
	cmp     #$03
	lda     #$00
	sbc     #$00
	bvc     L0020
	eor     #$80
L0020:	jpl     L0063
;
; actors.xDir[SKULL] = LEFT;
;
	lda     #$FF
	sta     _actors+44
;
; temp_x -= temp_x % 8;
;
	lda     _temp_x
	and     #$07
	eor     #$FF
	sec
	adc     _temp_x
	sta     _temp_x
;
; } else {
;
	jmp     L0043
;
; if (actors.yDir[SKULL] == DOWN) {
;
L0003:	lda     _actors+49
	cmp     #$01
	jne     L0025
;
; temp_x_col = temp_x + actors.width[SKULL];
;
	lda     _temp_x
	clc
	adc     _actors+14
	sta     _temp_x_col
;
; temp_y_col = temp_y + actors.height[SKULL];
;
	lda     _temp_y
	clc
	adc     _actors+19
	sta     _temp_y_col
;
; if (set_collision_data()) {
;
	jsr     _set_collision_data
	tax
	beq     L0058
;
; if (backup_col_type != COL_TYPE_SOFT) {
;
	lda     _backup_col_type
	cmp     #$06
	beq     L0028
;
; actors.yDir[SKULL] = UP;
;
	lda     #$FF
	sta     _actors+49
;
; temp_y -= temp_y % 8;
;
	lda     _temp_y
	and     #$07
	eor     #$FF
	sec
	adc     _temp_y
	sta     _temp_y
;
; do_skull_tile_collision();
;
L0028:	jsr     _do_skull_tile_collision
;
; temp_x_col = temp_x;
;
L0058:	lda     _temp_x
	sta     _temp_x_col
;
; temp_y_col = temp_y;
;
	lda     _temp_y
	sta     _temp_y_col
;
; if (set_collision_data()) {
;
	jsr     _set_collision_data
	tax
	beq     L0059
;
; if (backup_col_type != COL_TYPE_SOFT) {
;
	lda     _backup_col_type
	cmp     #$06
	jeq     L0043
;
; actors.xDir[SKULL] = RIGHT;
;
	lda     #$01
	sta     _actors+44
;
; temp_x += 8;
;
	lda     #$08
	clc
	adc     _temp_x
	sta     _temp_x
;
; temp_x -= temp_x % 8;
;
	and     #$07
	eor     #$FF
	sec
	adc     _temp_x
	sta     _temp_x
;
; } else {
;
	jmp     L0043
;
; temp_x_col = temp_x;
;
L0059:	lda     _temp_x
	sta     _temp_x_col
;
; temp_y_col += actors.height[SKULL];
;
	lda     _actors+19
	clc
	adc     _temp_y_col
	sta     _temp_y_col
;
; if (set_collision_data()) {
;
	jsr     _set_collision_data
	tax
	jeq     L003B
;
; if (backup_col_type != COL_TYPE_SOFT) {
;
	lda     _backup_col_type
	cmp     #$06
	jeq     L0043
;
; if (temp_y % 8 < COL_OFFSET && temp_x % 8 > 3) {
;
	lda     _temp_y
	and     #$07
	cmp     #$05
	lda     #$00
	sbc     #$00
	bvc     L002F
	eor     #$80
L002F:	bpl     L005D
	lda     _temp_x
	and     #$07
	cmp     #$04
	lda     #$00
	sbc     #$00
	bvs     L0031
	eor     #$80
L0031:	bpl     L005D
;
; actors.yDir[SKULL] = UP;
;
	lda     #$FF
	sta     _actors+49
;
; temp_y -= temp_y % 8;
;
	lda     _temp_y
;
; } else {
;
	jmp     L006B
;
; actors.xDir[SKULL] = RIGHT;
;
L005D:	lda     #$01
	sta     _actors+44
;
; temp_x += 8;
;
	lda     #$08
	clc
	adc     _temp_x
	sta     _temp_x
;
; temp_x -= temp_x % 8;
;
	and     #$07
	eor     #$FF
	sec
	adc     _temp_x
	sta     _temp_x
;
; } else {
;
	jmp     L0043
;
; temp_x_col = temp_x + actors.width[SKULL];
;
L0025:	lda     _temp_x
	clc
	adc     _actors+14
	sta     _temp_x_col
;
; temp_y_col = temp_y;
;
	lda     _temp_y
	sta     _temp_y_col
;
; if (set_collision_data()) {
;
	jsr     _set_collision_data
	tax
	beq     L005E
;
; if (backup_col_type != COL_TYPE_SOFT) {
;
	lda     _backup_col_type
	cmp     #$06
	beq     L0037
;
; actors.yDir[SKULL] = DOWN;
;
	lda     #$01
	sta     _actors+49
;
; temp_y += 8;
;
	lda     #$08
	clc
	adc     _temp_y
	sta     _temp_y
;
; temp_y -= temp_y % 8;
;
	and     #$07
	eor     #$FF
	sec
	adc     _temp_y
	sta     _temp_y
;
; do_skull_tile_collision();
;
L0037:	jsr     _do_skull_tile_collision
;
; temp_x_col = temp_x;
;
L005E:	lda     _temp_x
	sta     _temp_x_col
;
; temp_y_col = temp_y + actors.height[SKULL];
;
	lda     _temp_y
	clc
	adc     _actors+19
	sta     _temp_y_col
;
; if (set_collision_data()) {
;
	jsr     _set_collision_data
	tax
	beq     L005F
;
; if (backup_col_type != COL_TYPE_SOFT) {
;
	lda     _backup_col_type
	cmp     #$06
	jeq     L0043
;
; actors.xDir[SKULL] = RIGHT;
;
	lda     #$01
	sta     _actors+44
;
; temp_x += 8;
;
	lda     #$08
	clc
	adc     _temp_x
	sta     _temp_x
;
; temp_x -= temp_x % 8;
;
	and     #$07
	eor     #$FF
	sec
	adc     _temp_x
	sta     _temp_x
;
; } else {
;
	jmp     L0043
;
; temp_y_col = temp_y;
;
L005F:	lda     _temp_y
	sta     _temp_y_col
;
; if (set_collision_data()) {
;
	jsr     _set_collision_data
	tax
	beq     L003B
;
; if (backup_col_type != COL_TYPE_SOFT) {
;
	lda     _backup_col_type
	cmp     #$06
	beq     L0043
;
; if (temp_y % 8 < COL_OFFSET && temp_x % 8 > 3) {
;
	lda     _temp_y
	and     #$07
	cmp     #$05
	lda     #$00
	sbc     #$00
	bvc     L003E
	eor     #$80
L003E:	bpl     L0063
	lda     _temp_x
	and     #$07
	cmp     #$04
	lda     #$00
	sbc     #$00
	bvs     L0040
	eor     #$80
L0040:	bpl     L0063
;
; actors.xDir[SKULL] = RIGHT;
;
	lda     #$01
	sta     _actors+44
;
; temp_x += 8;
;
	lda     #$08
	clc
	adc     _temp_x
	sta     _temp_x
;
; temp_x -= temp_x % 8;
;
	and     #$07
	eor     #$FF
	sec
	adc     _temp_x
	sta     _temp_x
;
; } else {
;
	jmp     L0043
;
; actors.yDir[SKULL] = DOWN;
;
L0063:	lda     #$01
	sta     _actors+49
;
; temp_y += 8;
;
	lda     #$08
	clc
	adc     _temp_y
	sta     _temp_y
;
; temp_y -= temp_y % 8;
;
L006B:	and     #$07
	eor     #$FF
	sec
	adc     _temp_y
	sta     _temp_y
;
; do_skull_tile_collision();
;
L0043:	jsr     _do_skull_tile_collision
;
; check_paddle_collision();
;
L003B:	jsr     _check_paddle_collision
;
; --temp_x;
;
	dec     _temp_x
;
; --temp_y;
;
	dec     _temp_y
;
; } else {
;
	jmp     L0066
;
; temp_x = actors.x[PADDLE] + (actors.width[PADDLE] >> 1) - (actors.width[SKULL] >> 1);
;
L0065:	lda     _actors+10
	lsr     a
	clc
	adc     _actors
	bcc     L004C
	inx
L004C:	jsr     pushax
	lda     _actors+14
	lsr     a
	jsr     tossuba0
	sta     _temp_x
;
; temp_y = actors.y[PADDLE] + actors.bbox_y[PADDLE] - actors.height[SKULL] - actors.bbox_x[SKULL];
;
	lda     _actors+5
	clc
	adc     _actors+25
	sec
	sbc     _actors+19
	sec
	sbc     _actors+24
	sta     _temp_y
;
; actors.x[SKULL] = temp_x;
;
L0066:	lda     _temp_x
	sta     _actors+4
;
; actors.y[SKULL] = temp_y;
;
	lda     _temp_y
	sta     _actors+9
;
; }
;
	rts

.endproc

; ---------------------------------------------------------------
; void __near__ draw_sprites (void)
; ---------------------------------------------------------------

.segment	"CODE"

.proc	_draw_sprites: near

.segment	"CODE"

;
; oam_clear();
;
	jsr     _oam_clear
;
; for (i = 0; i < paddle_count; ++i) {
;
	lda     #$00
	sta     _i
L000D:	lda     _i
	cmp     _paddle_count
	bcs     L0003
;
; if (i < 2) {
;
	cmp     #$02
	bcs     L0006
;
; oam_meta_spr(actors.x[i], actors.y[i], HorizontalPaddleSpr);
;
	jsr     decsp2
	ldy     _i
	lda     _actors,y
	ldy     #$01
	sta     (sp),y
	ldy     _i
	lda     _actors+5,y
	ldy     #$00
	sta     (sp),y
	lda     #<(_HorizontalPaddleSpr)
	ldx     #>(_HorizontalPaddleSpr)
;
; } else {
;
	jmp     L000C
;
; oam_meta_spr(actors.x[i], actors.y[i], VerticalPaddleSpr);
;
L0006:	jsr     decsp2
	ldy     _i
	lda     _actors,y
	ldy     #$01
	sta     (sp),y
	ldy     _i
	lda     _actors+5,y
	ldy     #$00
	sta     (sp),y
	lda     #<(_VerticalPaddleSpr)
	ldx     #>(_VerticalPaddleSpr)
L000C:	jsr     _oam_meta_spr
;
; for (i = 0; i < paddle_count; ++i) {
;
	inc     _i
	jmp     L000D
;
; oam_spr(actors.x[SKULL], actors.y[SKULL], 0x00, 0b00000000);
;
L0003:	jsr     decsp3
	lda     _actors+4
	ldy     #$02
	sta     (sp),y
	lda     _actors+9
	dey
	sta     (sp),y
	lda     #$00
	dey
	sta     (sp),y
	jmp     _oam_spr

.endproc

; ---------------------------------------------------------------
; void __near__ main (void)
; ---------------------------------------------------------------

.segment	"CODE"

.proc	_main: near

.segment	"CODE"

;
; ppu_off();
;
	jsr     _ppu_off
;
; bank_spr(1);
;
	lda     #$01
	jsr     _bank_spr
;
; set_vram_buffer();
;
	jsr     _set_vram_buffer
;
; load_title_screen();
;
	jsr     _load_title_screen
;
; ppu_on_all();
;
	jsr     _ppu_on_all
;
; while (game_state == TITLE) {
;
	jmp     L000C
;
; ppu_wait_nmi();
;
L0005:	jsr     _ppu_wait_nmi
;
; pad1 = pad_poll(0);
;
	lda     #$00
	jsr     _pad_poll
	sta     _pad1
;
; pad1_new = get_pad_new(0);
;
	lda     #$00
	jsr     _get_pad_new
	sta     _pad1_new
;
; if (pad1_new & PAD_START) {
;
	and     #$10
	beq     L000C
;
; game_state = MAIN;
;
	lda     #$01
	sta     _game_state
;
; current_level = 1;
;
	sta     _current_level
;
; p1_health = 3;
;
	lda     #$03
	sta     _p1_health
;
; p1_max_health = 3;
;
	sta     _p1_max_health
;
; load_level();
;
	jsr     _load_level
;
; while (game_state == TITLE) {
;
L000C:	lda     _game_state
	beq     L0005
;
; while (game_state == MAIN) {
;
	jmp     L000D
;
; ppu_wait_nmi();
;
L0009:	jsr     _ppu_wait_nmi
;
; pad1 = pad_poll(0);
;
	lda     #$00
	jsr     _pad_poll
	sta     _pad1
;
; pad1_new = get_pad_new(0);
;
	lda     #$00
	jsr     _get_pad_new
	sta     _pad1_new
;
; check_main_input();
;
	jsr     _check_main_input
;
; update_skull();
;
	jsr     _update_skull
;
; draw_sprites();
;
	jsr     _draw_sprites
;
; gray_line();
;
	jsr     _gray_line
;
; while (game_state == MAIN) {
;
L000D:	lda     _game_state
	cmp     #$01
	beq     L0009
;
; while (1) {
;
	jmp     L000C

.endproc

